

Microchip Technology PIC18 LITE Macro Assembler V1.12 build 49521 
                                                                                               Thu Nov 22 16:09:59 2018

HI-TECH Software Omniscient Code Generator (Lite mode) build 49521
     1  0000                     opt subtitle "HI-TECH Software Omniscient Code Generator (Lite mode) build 49521"
     2                           opt subtitle "HI-TECH Software Omniscient Code Generator (Lite mode) build 49521"
     3                           
     4                           opt pagewidth 120
     5                           
     6                           	opt lm
     7                           
     8  0000                     porta	equ	0F80h
     9  0000                     portb	equ	0F81h
    10  0000                     portc	equ	0F82h
    11  0000                     portd	equ	0F83h
    12  0000                     porte	equ	0F84h
    13  0000                     lata	equ	0F89h
    14  0000                     latb	equ	0F8Ah
    15  0000                     latc	equ	0F8Bh
    16  0000                     latd	equ	0F8Ch
    17  0000                     late	equ	0F8Dh
    18  0000                     trisa	equ	0F92h
    19  0000                     trisb	equ	0F93h
    20  0000                     trisc	equ	0F94h
    21  0000                     trisd	equ	0F95h
    22  0000                     trise	equ	0F96h
    23  0000                     pie1	equ	0F9Dh
    24  0000                     pir1	equ	0F9Eh
    25  0000                     ipr1	equ	0F9Fh
    26  0000                     pie2	equ	0FA0h
    27  0000                     pir2	equ	0FA1h
    28  0000                     ipr2	equ	0FA2h
    29  0000                     t3con	equ	0FB1h
    30  0000                     tmr3l	equ	0FB2h
    31  0000                     tmr3h	equ	0FB3h
    32  0000                     ccp1con	equ	0FBDh
    33  0000                     ccpr1l	equ	0FBEh
    34  0000                     ccpr1h	equ	0FBFh
    35  0000                     adcon1	equ	0FC1h
    36  0000                     adcon0	equ	0FC2h
    37  0000                     adresl	equ	0FC3h
    38  0000                     adresh	equ	0FC4h
    39  0000                     sspcon2	equ	0FC5h
    40  0000                     sspcon1	equ	0FC6h
    41  0000                     sspstat	equ	0FC7h
    42  0000                     sspadd	equ	0FC8h
    43  0000                     sspbuf	equ	0FC9h
    44  0000                     t2con	equ	0FCAh
    45  0000                     pr2	equ	0FCBh
    46  0000                     tmr2	equ	0FCCh
    47  0000                     t1con	equ	0FCDh
    48  0000                     tmr1l	equ	0FCEh
    49  0000                     tmr1h	equ	0FCFh
    50  0000                     rcon	equ	0FD0h
    51  0000                     wdtcon	equ	0FD1h
    52  0000                     lvdcon	equ	0FD2h
    53  0000                     osccon	equ	0FD3h
    54  0000                     t0con	equ	0FD5h
    55  0000                     tmr0l	equ	0FD6h
    56  0000                     tmr0h	equ	0FD7h
    57  0000                     status	equ	0FD8h
    58  0000                     fsr2	equ	0FD9h
    59  0000                     fsr2l	equ	0FD9h
    60  0000                     fsr2h	equ	0FDAh
    61  0000                     plusw2	equ	0FDBh
    62  0000                     preinc2	equ	0FDCh
    63  0000                     postdec2	equ	0FDDh
    64  0000                     postinc2	equ	0FDEh
    65  0000                     indf2	equ	0FDFh
    66  0000                     bsr	equ	0FE0h
    67  0000                     fsr1	equ	0FE1h
    68  0000                     fsr1l	equ	0FE1h
    69  0000                     fsr1h	equ	0FE2h
    70  0000                     plusw1	equ	0FE3h
    71  0000                     preinc1	equ	0FE4h
    72  0000                     postdec1	equ	0FE5h
    73  0000                     postinc1	equ	0FE6h
    74  0000                     indf1	equ	0FE7h
    75  0000                     wreg	equ	0FE8h
    76  0000                     fsr0	equ	0FE9h
    77  0000                     fsr0l	equ	0FE9h
    78  0000                     fsr0h	equ	0FEAh
    79  0000                     plusw0	equ	0FEBh
    80  0000                     preinc0	equ	0FECh
    81  0000                     postdec0	equ	0FEDh
    82  0000                     postinc0	equ	0FEEh
    83  0000                     indf0	equ	0FEFh
    84  0000                     intcon3	equ	0FF0h
    85  0000                     intcon2	equ	0FF1h
    86  0000                     intcon	equ	0FF2h
    87  0000                     prod	equ	0FF3h
    88  0000                     prodl	equ	0FF3h
    89  0000                     prodh	equ	0FF4h
    90  0000                     tablat	equ	0FF5h
    91  0000                     tblptr	equ	0FF6h
    92  0000                     tblptrl	equ	0FF6h
    93  0000                     tblptrh	equ	0FF7h
    94  0000                     tblptru	equ	0FF8h
    95  0000                     pcl	equ	0FF9h
    96  0000                     pclat	equ	0FFAh
    97  0000                     pclath	equ	0FFAh
    98  0000                     pclatu	equ	0FFBh
    99  0000                     stkptr	equ	0FFCh
   100  0000                     tosl	equ	0FFDh
   101  0000                     tosh	equ	0FFEh
   102  0000                     tosu	equ	0FFFh
   103                           opt subtitle "HI-TECH Software Omniscient Code Generator (Lite mode) build 49521"
   104                           
   105  0000                     	endm
   106                           opt subtitle "HI-TECH Software Omniscient Code Generator (Lite mode) build 49521"
   107                           
   108                           opt pagewidth 120
   109  0000                     ANSELA equ 0F38h ;# 
   110                           opt subtitle "HI-TECH Software Omniscient Code Generator (Lite mode) build 49521"
   111  0000                     ANSELB equ 0F39h ;# 
   112                           opt subtitle "HI-TECH Software Omniscient Code Generator (Lite mode) build 49521"
   113  0000                     ANSELC equ 0F3Ah ;# 
   114                           opt subtitle "HI-TECH Software Omniscient Code Generator (Lite mode) build 49521"
   115  0000                     PMD2 equ 0F3Dh ;# 
   116                           opt subtitle "HI-TECH Software Omniscient Code Generator (Lite mode) build 49521"
   117  0000                     PMD1 equ 0F3Eh ;# 
   118                           opt subtitle "HI-TECH Software Omniscient Code Generator (Lite mode) build 49521"
   119  0000                     PMD0 equ 0F3Fh ;# 
   120                           opt subtitle "HI-TECH Software Omniscient Code Generator (Lite mode) build 49521"
   121  0000                     VREFCON2 equ 0F40h ;# 
   122                           opt subtitle "HI-TECH Software Omniscient Code Generator (Lite mode) build 49521"
   123  0000                     DACCON1 equ 0F40h ;# 
   124                           opt subtitle "HI-TECH Software Omniscient Code Generator (Lite mode) build 49521"
   125  0000                     VREFCON1 equ 0F41h ;# 
   126                           opt subtitle "HI-TECH Software Omniscient Code Generator (Lite mode) build 49521"
   127  0000                     DACCON0 equ 0F41h ;# 
   128                           opt subtitle "HI-TECH Software Omniscient Code Generator (Lite mode) build 49521"
   129  0000                     VREFCON0 equ 0F42h ;# 
   130                           opt subtitle "HI-TECH Software Omniscient Code Generator (Lite mode) build 49521"
   131  0000                     FVRCON equ 0F42h ;# 
   132                           opt subtitle "HI-TECH Software Omniscient Code Generator (Lite mode) build 49521"
   133  0000                     CTMUICON equ 0F43h ;# 
   134                           opt subtitle "HI-TECH Software Omniscient Code Generator (Lite mode) build 49521"
   135  0000                     CTMUICONH equ 0F43h ;# 
   136                           opt subtitle "HI-TECH Software Omniscient Code Generator (Lite mode) build 49521"
   137  0000                     CTMUCONL equ 0F44h ;# 
   138                           opt subtitle "HI-TECH Software Omniscient Code Generator (Lite mode) build 49521"
   139  0000                     CTMUCON1 equ 0F44h ;# 
   140                           opt subtitle "HI-TECH Software Omniscient Code Generator (Lite mode) build 49521"
   141  0000                     CTMUCONH equ 0F45h ;# 
   142                           opt subtitle "HI-TECH Software Omniscient Code Generator (Lite mode) build 49521"
   143  0000                     CTMUCON0 equ 0F45h ;# 
   144                           opt subtitle "HI-TECH Software Omniscient Code Generator (Lite mode) build 49521"
   145  0000                     SRCON1 equ 0F46h ;# 
   146                           opt subtitle "HI-TECH Software Omniscient Code Generator (Lite mode) build 49521"
   147  0000                     SRCON0 equ 0F47h ;# 
   148                           opt subtitle "HI-TECH Software Omniscient Code Generator (Lite mode) build 49521"
   149  0000                     CCPTMRS1 equ 0F48h ;# 
   150                           opt subtitle "HI-TECH Software Omniscient Code Generator (Lite mode) build 49521"
   151  0000                     CCPTMRS0 equ 0F49h ;# 
   152                           opt subtitle "HI-TECH Software Omniscient Code Generator (Lite mode) build 49521"
   153  0000                     T6CON equ 0F4Ah ;# 
   154                           opt subtitle "HI-TECH Software Omniscient Code Generator (Lite mode) build 49521"
   155  0000                     PR6 equ 0F4Bh ;# 
   156                           opt subtitle "HI-TECH Software Omniscient Code Generator (Lite mode) build 49521"
   157  0000                     TMR6 equ 0F4Ch ;# 
   158                           opt subtitle "HI-TECH Software Omniscient Code Generator (Lite mode) build 49521"
   159  0000                     T5GCON equ 0F4Dh ;# 
   160                           opt subtitle "HI-TECH Software Omniscient Code Generator (Lite mode) build 49521"
   161  0000                     T5CON equ 0F4Eh ;# 
   162                           opt subtitle "HI-TECH Software Omniscient Code Generator (Lite mode) build 49521"
   163  0000                     TMR5 equ 0F4Fh ;# 
   164                           opt subtitle "HI-TECH Software Omniscient Code Generator (Lite mode) build 49521"
   165  0000                     TMR5L equ 0F4Fh ;# 
   166                           opt subtitle "HI-TECH Software Omniscient Code Generator (Lite mode) build 49521"
   167  0000                     TMR5H equ 0F50h ;# 
   168                           opt subtitle "HI-TECH Software Omniscient Code Generator (Lite mode) build 49521"
   169  0000                     T4CON equ 0F51h ;# 
   170                           opt subtitle "HI-TECH Software Omniscient Code Generator (Lite mode) build 49521"
   171  0000                     PR4 equ 0F52h ;# 
   172                           opt subtitle "HI-TECH Software Omniscient Code Generator (Lite mode) build 49521"
   173  0000                     TMR4 equ 0F53h ;# 
   174                           opt subtitle "HI-TECH Software Omniscient Code Generator (Lite mode) build 49521"
   175  0000                     CCP5CON equ 0F54h ;# 
   176                           opt subtitle "HI-TECH Software Omniscient Code Generator (Lite mode) build 49521"
   177  0000                     CCPR5 equ 0F55h ;# 
   178                           opt subtitle "HI-TECH Software Omniscient Code Generator (Lite mode) build 49521"
   179  0000                     CCPR5L equ 0F55h ;# 
   180                           opt subtitle "HI-TECH Software Omniscient Code Generator (Lite mode) build 49521"
   181  0000                     CCPR5H equ 0F56h ;# 
   182                           opt subtitle "HI-TECH Software Omniscient Code Generator (Lite mode) build 49521"
   183  0000                     CCP4CON equ 0F57h ;# 
   184                           opt subtitle "HI-TECH Software Omniscient Code Generator (Lite mode) build 49521"
   185  0000                     CCPR4 equ 0F58h ;# 
   186                           opt subtitle "HI-TECH Software Omniscient Code Generator (Lite mode) build 49521"
   187  0000                     CCPR4L equ 0F58h ;# 
   188                           opt subtitle "HI-TECH Software Omniscient Code Generator (Lite mode) build 49521"
   189  0000                     CCPR4H equ 0F59h ;# 
   190                           opt subtitle "HI-TECH Software Omniscient Code Generator (Lite mode) build 49521"
   191  0000                     PSTR3CON equ 0F5Ah ;# 
   192                           opt subtitle "HI-TECH Software Omniscient Code Generator (Lite mode) build 49521"
   193  0000                     ECCP3AS equ 0F5Bh ;# 
   194                           opt subtitle "HI-TECH Software Omniscient Code Generator (Lite mode) build 49521"
   195  0000                     CCP3AS equ 0F5Bh ;# 
   196                           opt subtitle "HI-TECH Software Omniscient Code Generator (Lite mode) build 49521"
   197  0000                     PWM3CON equ 0F5Ch ;# 
   198                           opt subtitle "HI-TECH Software Omniscient Code Generator (Lite mode) build 49521"
   199  0000                     CCP3CON equ 0F5Dh ;# 
   200                           opt subtitle "HI-TECH Software Omniscient Code Generator (Lite mode) build 49521"
   201  0000                     CCPR3 equ 0F5Eh ;# 
   202                           opt subtitle "HI-TECH Software Omniscient Code Generator (Lite mode) build 49521"
   203  0000                     CCPR3L equ 0F5Eh ;# 
   204                           opt subtitle "HI-TECH Software Omniscient Code Generator (Lite mode) build 49521"
   205  0000                     CCPR3H equ 0F5Fh ;# 
   206                           opt subtitle "HI-TECH Software Omniscient Code Generator (Lite mode) build 49521"
   207  0000                     SLRCON equ 0F60h ;# 
   208                           opt subtitle "HI-TECH Software Omniscient Code Generator (Lite mode) build 49521"
   209  0000                     WPUB equ 0F61h ;# 
   210                           opt subtitle "HI-TECH Software Omniscient Code Generator (Lite mode) build 49521"
   211  0000                     IOCB equ 0F62h ;# 
   212                           opt subtitle "HI-TECH Software Omniscient Code Generator (Lite mode) build 49521"
   213  0000                     PSTR2CON equ 0F63h ;# 
   214                           opt subtitle "HI-TECH Software Omniscient Code Generator (Lite mode) build 49521"
   215  0000                     ECCP2AS equ 0F64h ;# 
   216                           opt subtitle "HI-TECH Software Omniscient Code Generator (Lite mode) build 49521"
   217  0000                     CCP2AS equ 0F64h ;# 
   218                           opt subtitle "HI-TECH Software Omniscient Code Generator (Lite mode) build 49521"
   219  0000                     PWM2CON equ 0F65h ;# 
   220                           opt subtitle "HI-TECH Software Omniscient Code Generator (Lite mode) build 49521"
   221  0000                     CCP2CON equ 0F66h ;# 
   222                           opt subtitle "HI-TECH Software Omniscient Code Generator (Lite mode) build 49521"
   223  0000                     CCPR2 equ 0F67h ;# 
   224                           opt subtitle "HI-TECH Software Omniscient Code Generator (Lite mode) build 49521"
   225  0000                     CCPR2L equ 0F67h ;# 
   226                           opt subtitle "HI-TECH Software Omniscient Code Generator (Lite mode) build 49521"
   227  0000                     CCPR2H equ 0F68h ;# 
   228                           opt subtitle "HI-TECH Software Omniscient Code Generator (Lite mode) build 49521"
   229  0000                     SSP2CON3 equ 0F69h ;# 
   230                           opt subtitle "HI-TECH Software Omniscient Code Generator (Lite mode) build 49521"
   231  0000                     SSP2MSK equ 0F6Ah ;# 
   232                           opt subtitle "HI-TECH Software Omniscient Code Generator (Lite mode) build 49521"
   233  0000                     SSP2CON2 equ 0F6Bh ;# 
   234                           opt subtitle "HI-TECH Software Omniscient Code Generator (Lite mode) build 49521"
   235  0000                     SSP2CON1 equ 0F6Ch ;# 
   236                           opt subtitle "HI-TECH Software Omniscient Code Generator (Lite mode) build 49521"
   237  0000                     SSP2STAT equ 0F6Dh ;# 
   238                           opt subtitle "HI-TECH Software Omniscient Code Generator (Lite mode) build 49521"
   239  0000                     SSP2ADD equ 0F6Eh ;# 
   240                           opt subtitle "HI-TECH Software Omniscient Code Generator (Lite mode) build 49521"
   241  0000                     SSP2BUF equ 0F6Fh ;# 
   242                           opt subtitle "HI-TECH Software Omniscient Code Generator (Lite mode) build 49521"
   243  0000                     BAUDCON2 equ 0F70h ;# 
   244                           opt subtitle "HI-TECH Software Omniscient Code Generator (Lite mode) build 49521"
   245  0000                     BAUD2CON equ 0F70h ;# 
   246                           opt subtitle "HI-TECH Software Omniscient Code Generator (Lite mode) build 49521"
   247  0000                     RCSTA2 equ 0F71h ;# 
   248                           opt subtitle "HI-TECH Software Omniscient Code Generator (Lite mode) build 49521"
   249  0000                     RC2STA equ 0F71h ;# 
   250                           opt subtitle "HI-TECH Software Omniscient Code Generator (Lite mode) build 49521"
   251  0000                     TXSTA2 equ 0F72h ;# 
   252                           opt subtitle "HI-TECH Software Omniscient Code Generator (Lite mode) build 49521"
   253  0000                     TX2STA equ 0F72h ;# 
   254                           opt subtitle "HI-TECH Software Omniscient Code Generator (Lite mode) build 49521"
   255  0000                     TXREG2 equ 0F73h ;# 
   256                           opt subtitle "HI-TECH Software Omniscient Code Generator (Lite mode) build 49521"
   257  0000                     TX2REG equ 0F73h ;# 
   258                           opt subtitle "HI-TECH Software Omniscient Code Generator (Lite mode) build 49521"
   259  0000                     RCREG2 equ 0F74h ;# 
   260                           opt subtitle "HI-TECH Software Omniscient Code Generator (Lite mode) build 49521"
   261  0000                     RC2REG equ 0F74h ;# 
   262                           opt subtitle "HI-TECH Software Omniscient Code Generator (Lite mode) build 49521"
   263  0000                     SPBRG2 equ 0F75h ;# 
   264                           opt subtitle "HI-TECH Software Omniscient Code Generator (Lite mode) build 49521"
   265  0000                     SP2BRG equ 0F75h ;# 
   266                           opt subtitle "HI-TECH Software Omniscient Code Generator (Lite mode) build 49521"
   267  0000                     SPBRGH2 equ 0F76h ;# 
   268                           opt subtitle "HI-TECH Software Omniscient Code Generator (Lite mode) build 49521"
   269  0000                     SP2BRGH equ 0F76h ;# 
   270                           opt subtitle "HI-TECH Software Omniscient Code Generator (Lite mode) build 49521"
   271  0000                     CM2CON1 equ 0F77h ;# 
   272                           opt subtitle "HI-TECH Software Omniscient Code Generator (Lite mode) build 49521"
   273  0000                     CM12CON equ 0F77h ;# 
   274                           opt subtitle "HI-TECH Software Omniscient Code Generator (Lite mode) build 49521"
   275  0000                     CM2CON0 equ 0F78h ;# 
   276                           opt subtitle "HI-TECH Software Omniscient Code Generator (Lite mode) build 49521"
   277  0000                     CM2CON equ 0F78h ;# 
   278                           opt subtitle "HI-TECH Software Omniscient Code Generator (Lite mode) build 49521"
   279  0000                     CM1CON0 equ 0F79h ;# 
   280                           opt subtitle "HI-TECH Software Omniscient Code Generator (Lite mode) build 49521"
   281  0000                     CM1CON equ 0F79h ;# 
   282                           opt subtitle "HI-TECH Software Omniscient Code Generator (Lite mode) build 49521"
   283  0000                     PIE4 equ 0F7Ah ;# 
   284                           opt subtitle "HI-TECH Software Omniscient Code Generator (Lite mode) build 49521"
   285  0000                     PIR4 equ 0F7Bh ;# 
   286                           opt subtitle "HI-TECH Software Omniscient Code Generator (Lite mode) build 49521"
   287  0000                     IPR4 equ 0F7Ch ;# 
   288                           opt subtitle "HI-TECH Software Omniscient Code Generator (Lite mode) build 49521"
   289  0000                     PIE5 equ 0F7Dh ;# 
   290                           opt subtitle "HI-TECH Software Omniscient Code Generator (Lite mode) build 49521"
   291  0000                     PIR5 equ 0F7Eh ;# 
   292                           opt subtitle "HI-TECH Software Omniscient Code Generator (Lite mode) build 49521"
   293  0000                     IPR5 equ 0F7Fh ;# 
   294                           opt subtitle "HI-TECH Software Omniscient Code Generator (Lite mode) build 49521"
   295  0000                     PORTA equ 0F80h ;# 
   296                           opt subtitle "HI-TECH Software Omniscient Code Generator (Lite mode) build 49521"
   297  0000                     PORTB equ 0F81h ;# 
   298                           opt subtitle "HI-TECH Software Omniscient Code Generator (Lite mode) build 49521"
   299  0000                     PORTC equ 0F82h ;# 
   300                           opt subtitle "HI-TECH Software Omniscient Code Generator (Lite mode) build 49521"
   301  0000                     PORTE equ 0F84h ;# 
   302                           opt subtitle "HI-TECH Software Omniscient Code Generator (Lite mode) build 49521"
   303  0000                     LATA equ 0F89h ;# 
   304                           opt subtitle "HI-TECH Software Omniscient Code Generator (Lite mode) build 49521"
   305  0000                     LATB equ 0F8Ah ;# 
   306                           opt subtitle "HI-TECH Software Omniscient Code Generator (Lite mode) build 49521"
   307  0000                     LATC equ 0F8Bh ;# 
   308                           opt subtitle "HI-TECH Software Omniscient Code Generator (Lite mode) build 49521"
   309  0000                     TRISA equ 0F92h ;# 
   310                           opt subtitle "HI-TECH Software Omniscient Code Generator (Lite mode) build 49521"
   311  0000                     DDRA equ 0F92h ;# 
   312                           opt subtitle "HI-TECH Software Omniscient Code Generator (Lite mode) build 49521"
   313  0000                     TRISB equ 0F93h ;# 
   314                           opt subtitle "HI-TECH Software Omniscient Code Generator (Lite mode) build 49521"
   315  0000                     DDRB equ 0F93h ;# 
   316                           opt subtitle "HI-TECH Software Omniscient Code Generator (Lite mode) build 49521"
   317  0000                     TRISC equ 0F94h ;# 
   318                           opt subtitle "HI-TECH Software Omniscient Code Generator (Lite mode) build 49521"
   319  0000                     DDRC equ 0F94h ;# 
   320                           opt subtitle "HI-TECH Software Omniscient Code Generator (Lite mode) build 49521"
   321  0000                     TRISE equ 0F96h ;# 
   322                           opt subtitle "HI-TECH Software Omniscient Code Generator (Lite mode) build 49521"
   323  0000                     OSCTUNE equ 0F9Bh ;# 
   324                           opt subtitle "HI-TECH Software Omniscient Code Generator (Lite mode) build 49521"
   325  0000                     HLVDCON equ 0F9Ch ;# 
   326                           opt subtitle "HI-TECH Software Omniscient Code Generator (Lite mode) build 49521"
   327  0000                     LVDCON equ 0F9Ch ;# 
   328                           opt subtitle "HI-TECH Software Omniscient Code Generator (Lite mode) build 49521"
   329  0000                     PIE1 equ 0F9Dh ;# 
   330                           opt subtitle "HI-TECH Software Omniscient Code Generator (Lite mode) build 49521"
   331  0000                     PIR1 equ 0F9Eh ;# 
   332                           opt subtitle "HI-TECH Software Omniscient Code Generator (Lite mode) build 49521"
   333  0000                     IPR1 equ 0F9Fh ;# 
   334                           opt subtitle "HI-TECH Software Omniscient Code Generator (Lite mode) build 49521"
   335  0000                     PIE2 equ 0FA0h ;# 
   336                           opt subtitle "HI-TECH Software Omniscient Code Generator (Lite mode) build 49521"
   337  0000                     PIR2 equ 0FA1h ;# 
   338                           opt subtitle "HI-TECH Software Omniscient Code Generator (Lite mode) build 49521"
   339  0000                     IPR2 equ 0FA2h ;# 
   340                           opt subtitle "HI-TECH Software Omniscient Code Generator (Lite mode) build 49521"
   341  0000                     PIE3 equ 0FA3h ;# 
   342                           opt subtitle "HI-TECH Software Omniscient Code Generator (Lite mode) build 49521"
   343  0000                     PIR3 equ 0FA4h ;# 
   344                           opt subtitle "HI-TECH Software Omniscient Code Generator (Lite mode) build 49521"
   345  0000                     IPR3 equ 0FA5h ;# 
   346                           opt subtitle "HI-TECH Software Omniscient Code Generator (Lite mode) build 49521"
   347  0000                     EECON1 equ 0FA6h ;# 
   348                           opt subtitle "HI-TECH Software Omniscient Code Generator (Lite mode) build 49521"
   349  0000                     EECON2 equ 0FA7h ;# 
   350                           opt subtitle "HI-TECH Software Omniscient Code Generator (Lite mode) build 49521"
   351  0000                     EEDATA equ 0FA8h ;# 
   352                           opt subtitle "HI-TECH Software Omniscient Code Generator (Lite mode) build 49521"
   353  0000                     EEADR equ 0FA9h ;# 
   354                           opt subtitle "HI-TECH Software Omniscient Code Generator (Lite mode) build 49521"
   355  0000                     RCSTA1 equ 0FABh ;# 
   356                           opt subtitle "HI-TECH Software Omniscient Code Generator (Lite mode) build 49521"
   357  0000                     RCSTA equ 0FABh ;# 
   358                           opt subtitle "HI-TECH Software Omniscient Code Generator (Lite mode) build 49521"
   359  0000                     RC1STA equ 0FABh ;# 
   360                           opt subtitle "HI-TECH Software Omniscient Code Generator (Lite mode) build 49521"
   361  0000                     TXSTA1 equ 0FACh ;# 
   362                           opt subtitle "HI-TECH Software Omniscient Code Generator (Lite mode) build 49521"
   363  0000                     TXSTA equ 0FACh ;# 
   364                           opt subtitle "HI-TECH Software Omniscient Code Generator (Lite mode) build 49521"
   365  0000                     TX1STA equ 0FACh ;# 
   366                           opt subtitle "HI-TECH Software Omniscient Code Generator (Lite mode) build 49521"
   367  0000                     TXREG1 equ 0FADh ;# 
   368                           opt subtitle "HI-TECH Software Omniscient Code Generator (Lite mode) build 49521"
   369  0000                     TXREG equ 0FADh ;# 
   370                           opt subtitle "HI-TECH Software Omniscient Code Generator (Lite mode) build 49521"
   371  0000                     TX1REG equ 0FADh ;# 
   372                           opt subtitle "HI-TECH Software Omniscient Code Generator (Lite mode) build 49521"
   373  0000                     RCREG1 equ 0FAEh ;# 
   374                           opt subtitle "HI-TECH Software Omniscient Code Generator (Lite mode) build 49521"
   375  0000                     RCREG equ 0FAEh ;# 
   376                           opt subtitle "HI-TECH Software Omniscient Code Generator (Lite mode) build 49521"
   377  0000                     RC1REG equ 0FAEh ;# 
   378                           opt subtitle "HI-TECH Software Omniscient Code Generator (Lite mode) build 49521"
   379  0000                     SPBRG1 equ 0FAFh ;# 
   380                           opt subtitle "HI-TECH Software Omniscient Code Generator (Lite mode) build 49521"
   381  0000                     SPBRG equ 0FAFh ;# 
   382                           opt subtitle "HI-TECH Software Omniscient Code Generator (Lite mode) build 49521"
   383  0000                     SP1BRG equ 0FAFh ;# 
   384                           opt subtitle "HI-TECH Software Omniscient Code Generator (Lite mode) build 49521"
   385  0000                     SPBRGH1 equ 0FB0h ;# 
   386                           opt subtitle "HI-TECH Software Omniscient Code Generator (Lite mode) build 49521"
   387  0000                     SPBRGH equ 0FB0h ;# 
   388                           opt subtitle "HI-TECH Software Omniscient Code Generator (Lite mode) build 49521"
   389  0000                     SP1BRGH equ 0FB0h ;# 
   390                           opt subtitle "HI-TECH Software Omniscient Code Generator (Lite mode) build 49521"
   391  0000                     T3CON equ 0FB1h ;# 
   392                           opt subtitle "HI-TECH Software Omniscient Code Generator (Lite mode) build 49521"
   393  0000                     TMR3 equ 0FB2h ;# 
   394                           opt subtitle "HI-TECH Software Omniscient Code Generator (Lite mode) build 49521"
   395  0000                     TMR3L equ 0FB2h ;# 
   396                           opt subtitle "HI-TECH Software Omniscient Code Generator (Lite mode) build 49521"
   397  0000                     TMR3H equ 0FB3h ;# 
   398                           opt subtitle "HI-TECH Software Omniscient Code Generator (Lite mode) build 49521"
   399  0000                     T3GCON equ 0FB4h ;# 
   400                           opt subtitle "HI-TECH Software Omniscient Code Generator (Lite mode) build 49521"
   401  0000                     ECCP1AS equ 0FB6h ;# 
   402                           opt subtitle "HI-TECH Software Omniscient Code Generator (Lite mode) build 49521"
   403  0000                     ECCPAS equ 0FB6h ;# 
   404                           opt subtitle "HI-TECH Software Omniscient Code Generator (Lite mode) build 49521"
   405  0000                     PWM1CON equ 0FB7h ;# 
   406                           opt subtitle "HI-TECH Software Omniscient Code Generator (Lite mode) build 49521"
   407  0000                     PWMCON equ 0FB7h ;# 
   408                           opt subtitle "HI-TECH Software Omniscient Code Generator (Lite mode) build 49521"
   409  0000                     BAUDCON1 equ 0FB8h ;# 
   410                           opt subtitle "HI-TECH Software Omniscient Code Generator (Lite mode) build 49521"
   411  0000                     BAUDCON equ 0FB8h ;# 
   412                           opt subtitle "HI-TECH Software Omniscient Code Generator (Lite mode) build 49521"
   413  0000                     BAUDCTL equ 0FB8h ;# 
   414                           opt subtitle "HI-TECH Software Omniscient Code Generator (Lite mode) build 49521"
   415  0000                     BAUD1CON equ 0FB8h ;# 
   416                           opt subtitle "HI-TECH Software Omniscient Code Generator (Lite mode) build 49521"
   417  0000                     PSTR1CON equ 0FB9h ;# 
   418                           opt subtitle "HI-TECH Software Omniscient Code Generator (Lite mode) build 49521"
   419  0000                     PSTRCON equ 0FB9h ;# 
   420                           opt subtitle "HI-TECH Software Omniscient Code Generator (Lite mode) build 49521"
   421  0000                     T2CON equ 0FBAh ;# 
   422                           opt subtitle "HI-TECH Software Omniscient Code Generator (Lite mode) build 49521"
   423  0000                     PR2 equ 0FBBh ;# 
   424                           opt subtitle "HI-TECH Software Omniscient Code Generator (Lite mode) build 49521"
   425  0000                     TMR2 equ 0FBCh ;# 
   426                           opt subtitle "HI-TECH Software Omniscient Code Generator (Lite mode) build 49521"
   427  0000                     CCP1CON equ 0FBDh ;# 
   428                           opt subtitle "HI-TECH Software Omniscient Code Generator (Lite mode) build 49521"
   429  0000                     CCPR1 equ 0FBEh ;# 
   430                           opt subtitle "HI-TECH Software Omniscient Code Generator (Lite mode) build 49521"
   431  0000                     CCPR1L equ 0FBEh ;# 
   432                           opt subtitle "HI-TECH Software Omniscient Code Generator (Lite mode) build 49521"
   433  0000                     CCPR1H equ 0FBFh ;# 
   434                           opt subtitle "HI-TECH Software Omniscient Code Generator (Lite mode) build 49521"
   435  0000                     ADCON2 equ 0FC0h ;# 
   436                           opt subtitle "HI-TECH Software Omniscient Code Generator (Lite mode) build 49521"
   437  0000                     ADCON1 equ 0FC1h ;# 
   438                           opt subtitle "HI-TECH Software Omniscient Code Generator (Lite mode) build 49521"
   439  0000                     ADCON0 equ 0FC2h ;# 
   440                           opt subtitle "HI-TECH Software Omniscient Code Generator (Lite mode) build 49521"
   441  0000                     ADRES equ 0FC3h ;# 
   442                           opt subtitle "HI-TECH Software Omniscient Code Generator (Lite mode) build 49521"
   443  0000                     ADRESL equ 0FC3h ;# 
   444                           opt subtitle "HI-TECH Software Omniscient Code Generator (Lite mode) build 49521"
   445  0000                     ADRESH equ 0FC4h ;# 
   446                           opt subtitle "HI-TECH Software Omniscient Code Generator (Lite mode) build 49521"
   447  0000                     SSP1CON2 equ 0FC5h ;# 
   448                           opt subtitle "HI-TECH Software Omniscient Code Generator (Lite mode) build 49521"
   449  0000                     SSPCON2 equ 0FC5h ;# 
   450                           opt subtitle "HI-TECH Software Omniscient Code Generator (Lite mode) build 49521"
   451  0000                     SSP1CON1 equ 0FC6h ;# 
   452                           opt subtitle "HI-TECH Software Omniscient Code Generator (Lite mode) build 49521"
   453  0000                     SSPCON1 equ 0FC6h ;# 
   454                           opt subtitle "HI-TECH Software Omniscient Code Generator (Lite mode) build 49521"
   455  0000                     SSP1STAT equ 0FC7h ;# 
   456                           opt subtitle "HI-TECH Software Omniscient Code Generator (Lite mode) build 49521"
   457  0000                     SSPSTAT equ 0FC7h ;# 
   458                           opt subtitle "HI-TECH Software Omniscient Code Generator (Lite mode) build 49521"
   459  0000                     SSP1ADD equ 0FC8h ;# 
   460                           opt subtitle "HI-TECH Software Omniscient Code Generator (Lite mode) build 49521"
   461  0000                     SSPADD equ 0FC8h ;# 
   462                           opt subtitle "HI-TECH Software Omniscient Code Generator (Lite mode) build 49521"
   463  0000                     SSP1BUF equ 0FC9h ;# 
   464                           opt subtitle "HI-TECH Software Omniscient Code Generator (Lite mode) build 49521"
   465  0000                     SSPBUF equ 0FC9h ;# 
   466                           opt subtitle "HI-TECH Software Omniscient Code Generator (Lite mode) build 49521"
   467  0000                     SSP1MSK equ 0FCAh ;# 
   468                           opt subtitle "HI-TECH Software Omniscient Code Generator (Lite mode) build 49521"
   469  0000                     SSPMSK equ 0FCAh ;# 
   470                           opt subtitle "HI-TECH Software Omniscient Code Generator (Lite mode) build 49521"
   471  0000                     SSP1CON3 equ 0FCBh ;# 
   472                           opt subtitle "HI-TECH Software Omniscient Code Generator (Lite mode) build 49521"
   473  0000                     SSPCON3 equ 0FCBh ;# 
   474                           opt subtitle "HI-TECH Software Omniscient Code Generator (Lite mode) build 49521"
   475  0000                     T1GCON equ 0FCCh ;# 
   476                           opt subtitle "HI-TECH Software Omniscient Code Generator (Lite mode) build 49521"
   477  0000                     T1CON equ 0FCDh ;# 
   478                           opt subtitle "HI-TECH Software Omniscient Code Generator (Lite mode) build 49521"
   479  0000                     TMR1 equ 0FCEh ;# 
   480                           opt subtitle "HI-TECH Software Omniscient Code Generator (Lite mode) build 49521"
   481  0000                     TMR1L equ 0FCEh ;# 
   482                           opt subtitle "HI-TECH Software Omniscient Code Generator (Lite mode) build 49521"
   483  0000                     TMR1H equ 0FCFh ;# 
   484                           opt subtitle "HI-TECH Software Omniscient Code Generator (Lite mode) build 49521"
   485  0000                     RCON equ 0FD0h ;# 
   486                           opt subtitle "HI-TECH Software Omniscient Code Generator (Lite mode) build 49521"
   487  0000                     WDTCON equ 0FD1h ;# 
   488                           opt subtitle "HI-TECH Software Omniscient Code Generator (Lite mode) build 49521"
   489  0000                     OSCCON2 equ 0FD2h ;# 
   490                           opt subtitle "HI-TECH Software Omniscient Code Generator (Lite mode) build 49521"
   491  0000                     OSCCON equ 0FD3h ;# 
   492                           opt subtitle "HI-TECH Software Omniscient Code Generator (Lite mode) build 49521"
   493  0000                     T0CON equ 0FD5h ;# 
   494                           opt subtitle "HI-TECH Software Omniscient Code Generator (Lite mode) build 49521"
   495  0000                     TMR0 equ 0FD6h ;# 
   496                           opt subtitle "HI-TECH Software Omniscient Code Generator (Lite mode) build 49521"
   497  0000                     TMR0L equ 0FD6h ;# 
   498                           opt subtitle "HI-TECH Software Omniscient Code Generator (Lite mode) build 49521"
   499  0000                     TMR0H equ 0FD7h ;# 
   500                           opt subtitle "HI-TECH Software Omniscient Code Generator (Lite mode) build 49521"
   501  0000                     STATUS equ 0FD8h ;# 
   502                           opt subtitle "HI-TECH Software Omniscient Code Generator (Lite mode) build 49521"
   503  0000                     FSR2 equ 0FD9h ;# 
   504                           opt subtitle "HI-TECH Software Omniscient Code Generator (Lite mode) build 49521"
   505  0000                     FSR2L equ 0FD9h ;# 
   506                           opt subtitle "HI-TECH Software Omniscient Code Generator (Lite mode) build 49521"
   507  0000                     FSR2H equ 0FDAh ;# 
   508                           opt subtitle "HI-TECH Software Omniscient Code Generator (Lite mode) build 49521"
   509  0000                     PLUSW2 equ 0FDBh ;# 
   510                           opt subtitle "HI-TECH Software Omniscient Code Generator (Lite mode) build 49521"
   511  0000                     PREINC2 equ 0FDCh ;# 
   512                           opt subtitle "HI-TECH Software Omniscient Code Generator (Lite mode) build 49521"
   513  0000                     POSTDEC2 equ 0FDDh ;# 
   514                           opt subtitle "HI-TECH Software Omniscient Code Generator (Lite mode) build 49521"
   515  0000                     POSTINC2 equ 0FDEh ;# 
   516                           opt subtitle "HI-TECH Software Omniscient Code Generator (Lite mode) build 49521"
   517  0000                     INDF2 equ 0FDFh ;# 
   518                           opt subtitle "HI-TECH Software Omniscient Code Generator (Lite mode) build 49521"
   519  0000                     BSR equ 0FE0h ;# 
   520                           opt subtitle "HI-TECH Software Omniscient Code Generator (Lite mode) build 49521"
   521  0000                     FSR1 equ 0FE1h ;# 
   522                           opt subtitle "HI-TECH Software Omniscient Code Generator (Lite mode) build 49521"
   523  0000                     FSR1L equ 0FE1h ;# 
   524                           opt subtitle "HI-TECH Software Omniscient Code Generator (Lite mode) build 49521"
   525  0000                     FSR1H equ 0FE2h ;# 
   526                           opt subtitle "HI-TECH Software Omniscient Code Generator (Lite mode) build 49521"
   527  0000                     PLUSW1 equ 0FE3h ;# 
   528                           opt subtitle "HI-TECH Software Omniscient Code Generator (Lite mode) build 49521"
   529  0000                     PREINC1 equ 0FE4h ;# 
   530                           opt subtitle "HI-TECH Software Omniscient Code Generator (Lite mode) build 49521"
   531  0000                     POSTDEC1 equ 0FE5h ;# 
   532                           opt subtitle "HI-TECH Software Omniscient Code Generator (Lite mode) build 49521"
   533  0000                     POSTINC1 equ 0FE6h ;# 
   534                           opt subtitle "HI-TECH Software Omniscient Code Generator (Lite mode) build 49521"
   535  0000                     INDF1 equ 0FE7h ;# 
   536                           opt subtitle "HI-TECH Software Omniscient Code Generator (Lite mode) build 49521"
   537  0000                     WREG equ 0FE8h ;# 
   538                           opt subtitle "HI-TECH Software Omniscient Code Generator (Lite mode) build 49521"
   539  0000                     FSR0 equ 0FE9h ;# 
   540                           opt subtitle "HI-TECH Software Omniscient Code Generator (Lite mode) build 49521"
   541  0000                     FSR0L equ 0FE9h ;# 
   542                           opt subtitle "HI-TECH Software Omniscient Code Generator (Lite mode) build 49521"
   543  0000                     FSR0H equ 0FEAh ;# 
   544                           opt subtitle "HI-TECH Software Omniscient Code Generator (Lite mode) build 49521"
   545  0000                     PLUSW0 equ 0FEBh ;# 
   546                           opt subtitle "HI-TECH Software Omniscient Code Generator (Lite mode) build 49521"
   547  0000                     PREINC0 equ 0FECh ;# 
   548                           opt subtitle "HI-TECH Software Omniscient Code Generator (Lite mode) build 49521"
   549  0000                     POSTDEC0 equ 0FEDh ;# 
   550                           opt subtitle "HI-TECH Software Omniscient Code Generator (Lite mode) build 49521"
   551  0000                     POSTINC0 equ 0FEEh ;# 
   552                           opt subtitle "HI-TECH Software Omniscient Code Generator (Lite mode) build 49521"
   553  0000                     INDF0 equ 0FEFh ;# 
   554                           opt subtitle "HI-TECH Software Omniscient Code Generator (Lite mode) build 49521"
   555  0000                     INTCON3 equ 0FF0h ;# 
   556                           opt subtitle "HI-TECH Software Omniscient Code Generator (Lite mode) build 49521"
   557  0000                     INTCON2 equ 0FF1h ;# 
   558                           opt subtitle "HI-TECH Software Omniscient Code Generator (Lite mode) build 49521"
   559  0000                     INTCON equ 0FF2h ;# 
   560                           opt subtitle "HI-TECH Software Omniscient Code Generator (Lite mode) build 49521"
   561  0000                     PROD equ 0FF3h ;# 
   562                           opt subtitle "HI-TECH Software Omniscient Code Generator (Lite mode) build 49521"
   563  0000                     PRODL equ 0FF3h ;# 
   564                           opt subtitle "HI-TECH Software Omniscient Code Generator (Lite mode) build 49521"
   565  0000                     PRODH equ 0FF4h ;# 
   566                           opt subtitle "HI-TECH Software Omniscient Code Generator (Lite mode) build 49521"
   567  0000                     TABLAT equ 0FF5h ;# 
   568                           opt subtitle "HI-TECH Software Omniscient Code Generator (Lite mode) build 49521"
   569  0000                     TBLPTR equ 0FF6h ;# 
   570                           opt subtitle "HI-TECH Software Omniscient Code Generator (Lite mode) build 49521"
   571  0000                     TBLPTRL equ 0FF6h ;# 
   572                           opt subtitle "HI-TECH Software Omniscient Code Generator (Lite mode) build 49521"
   573  0000                     TBLPTRH equ 0FF7h ;# 
   574                           opt subtitle "HI-TECH Software Omniscient Code Generator (Lite mode) build 49521"
   575  0000                     TBLPTRU equ 0FF8h ;# 
   576                           opt subtitle "HI-TECH Software Omniscient Code Generator (Lite mode) build 49521"
   577  0000                     PCLAT equ 0FF9h ;# 
   578                           opt subtitle "HI-TECH Software Omniscient Code Generator (Lite mode) build 49521"
   579  0000                     PC equ 0FF9h ;# 
   580                           opt subtitle "HI-TECH Software Omniscient Code Generator (Lite mode) build 49521"
   581  0000                     PCL equ 0FF9h ;# 
   582                           opt subtitle "HI-TECH Software Omniscient Code Generator (Lite mode) build 49521"
   583  0000                     PCLATH equ 0FFAh ;# 
   584                           opt subtitle "HI-TECH Software Omniscient Code Generator (Lite mode) build 49521"
   585  0000                     PCLATU equ 0FFBh ;# 
   586                           opt subtitle "HI-TECH Software Omniscient Code Generator (Lite mode) build 49521"
   587  0000                     STKPTR equ 0FFCh ;# 
   588                           opt subtitle "HI-TECH Software Omniscient Code Generator (Lite mode) build 49521"
   589  0000                     TOS equ 0FFDh ;# 
   590                           opt subtitle "HI-TECH Software Omniscient Code Generator (Lite mode) build 49521"
   591  0000                     TOSL equ 0FFDh ;# 
   592                           opt subtitle "HI-TECH Software Omniscient Code Generator (Lite mode) build 49521"
   593  0000                     TOSH equ 0FFEh ;# 
   594                           opt subtitle "HI-TECH Software Omniscient Code Generator (Lite mode) build 49521"
   595  0000                     TOSU equ 0FFFh ;# 
   596                           opt subtitle "HI-TECH Software Omniscient Code Generator (Lite mode) build 49521"
   597  0000                     ANSELA equ 0F38h ;# 
   598                           opt subtitle "HI-TECH Software Omniscient Code Generator (Lite mode) build 49521"
   599  0000                     ANSELB equ 0F39h ;# 
   600                           opt subtitle "HI-TECH Software Omniscient Code Generator (Lite mode) build 49521"
   601  0000                     ANSELC equ 0F3Ah ;# 
   602                           opt subtitle "HI-TECH Software Omniscient Code Generator (Lite mode) build 49521"
   603  0000                     PMD2 equ 0F3Dh ;# 
   604                           opt subtitle "HI-TECH Software Omniscient Code Generator (Lite mode) build 49521"
   605  0000                     PMD1 equ 0F3Eh ;# 
   606                           opt subtitle "HI-TECH Software Omniscient Code Generator (Lite mode) build 49521"
   607  0000                     PMD0 equ 0F3Fh ;# 
   608                           opt subtitle "HI-TECH Software Omniscient Code Generator (Lite mode) build 49521"
   609  0000                     VREFCON2 equ 0F40h ;# 
   610                           opt subtitle "HI-TECH Software Omniscient Code Generator (Lite mode) build 49521"
   611  0000                     DACCON1 equ 0F40h ;# 
   612                           opt subtitle "HI-TECH Software Omniscient Code Generator (Lite mode) build 49521"
   613  0000                     VREFCON1 equ 0F41h ;# 
   614                           opt subtitle "HI-TECH Software Omniscient Code Generator (Lite mode) build 49521"
   615  0000                     DACCON0 equ 0F41h ;# 
   616                           opt subtitle "HI-TECH Software Omniscient Code Generator (Lite mode) build 49521"
   617  0000                     VREFCON0 equ 0F42h ;# 
   618                           opt subtitle "HI-TECH Software Omniscient Code Generator (Lite mode) build 49521"
   619  0000                     FVRCON equ 0F42h ;# 
   620                           opt subtitle "HI-TECH Software Omniscient Code Generator (Lite mode) build 49521"
   621  0000                     CTMUICON equ 0F43h ;# 
   622                           opt subtitle "HI-TECH Software Omniscient Code Generator (Lite mode) build 49521"
   623  0000                     CTMUICONH equ 0F43h ;# 
   624                           opt subtitle "HI-TECH Software Omniscient Code Generator (Lite mode) build 49521"
   625  0000                     CTMUCONL equ 0F44h ;# 
   626                           opt subtitle "HI-TECH Software Omniscient Code Generator (Lite mode) build 49521"
   627  0000                     CTMUCON1 equ 0F44h ;# 
   628                           opt subtitle "HI-TECH Software Omniscient Code Generator (Lite mode) build 49521"
   629  0000                     CTMUCONH equ 0F45h ;# 
   630                           opt subtitle "HI-TECH Software Omniscient Code Generator (Lite mode) build 49521"
   631  0000                     CTMUCON0 equ 0F45h ;# 
   632                           opt subtitle "HI-TECH Software Omniscient Code Generator (Lite mode) build 49521"
   633  0000                     SRCON1 equ 0F46h ;# 
   634                           opt subtitle "HI-TECH Software Omniscient Code Generator (Lite mode) build 49521"
   635  0000                     SRCON0 equ 0F47h ;# 
   636                           opt subtitle "HI-TECH Software Omniscient Code Generator (Lite mode) build 49521"
   637  0000                     CCPTMRS1 equ 0F48h ;# 
   638                           opt subtitle "HI-TECH Software Omniscient Code Generator (Lite mode) build 49521"
   639  0000                     CCPTMRS0 equ 0F49h ;# 
   640                           opt subtitle "HI-TECH Software Omniscient Code Generator (Lite mode) build 49521"
   641  0000                     T6CON equ 0F4Ah ;# 
   642                           opt subtitle "HI-TECH Software Omniscient Code Generator (Lite mode) build 49521"
   643  0000                     PR6 equ 0F4Bh ;# 
   644                           opt subtitle "HI-TECH Software Omniscient Code Generator (Lite mode) build 49521"
   645  0000                     TMR6 equ 0F4Ch ;# 
   646                           opt subtitle "HI-TECH Software Omniscient Code Generator (Lite mode) build 49521"
   647  0000                     T5GCON equ 0F4Dh ;# 
   648                           opt subtitle "HI-TECH Software Omniscient Code Generator (Lite mode) build 49521"
   649  0000                     T5CON equ 0F4Eh ;# 
   650                           opt subtitle "HI-TECH Software Omniscient Code Generator (Lite mode) build 49521"
   651  0000                     TMR5 equ 0F4Fh ;# 
   652                           opt subtitle "HI-TECH Software Omniscient Code Generator (Lite mode) build 49521"
   653  0000                     TMR5L equ 0F4Fh ;# 
   654                           opt subtitle "HI-TECH Software Omniscient Code Generator (Lite mode) build 49521"
   655  0000                     TMR5H equ 0F50h ;# 
   656                           opt subtitle "HI-TECH Software Omniscient Code Generator (Lite mode) build 49521"
   657  0000                     T4CON equ 0F51h ;# 
   658                           opt subtitle "HI-TECH Software Omniscient Code Generator (Lite mode) build 49521"
   659  0000                     PR4 equ 0F52h ;# 
   660                           opt subtitle "HI-TECH Software Omniscient Code Generator (Lite mode) build 49521"
   661  0000                     TMR4 equ 0F53h ;# 
   662                           opt subtitle "HI-TECH Software Omniscient Code Generator (Lite mode) build 49521"
   663  0000                     CCP5CON equ 0F54h ;# 
   664                           opt subtitle "HI-TECH Software Omniscient Code Generator (Lite mode) build 49521"
   665  0000                     CCPR5 equ 0F55h ;# 
   666                           opt subtitle "HI-TECH Software Omniscient Code Generator (Lite mode) build 49521"
   667  0000                     CCPR5L equ 0F55h ;# 
   668                           opt subtitle "HI-TECH Software Omniscient Code Generator (Lite mode) build 49521"
   669  0000                     CCPR5H equ 0F56h ;# 
   670                           opt subtitle "HI-TECH Software Omniscient Code Generator (Lite mode) build 49521"
   671  0000                     CCP4CON equ 0F57h ;# 
   672                           opt subtitle "HI-TECH Software Omniscient Code Generator (Lite mode) build 49521"
   673  0000                     CCPR4 equ 0F58h ;# 
   674                           opt subtitle "HI-TECH Software Omniscient Code Generator (Lite mode) build 49521"
   675  0000                     CCPR4L equ 0F58h ;# 
   676                           opt subtitle "HI-TECH Software Omniscient Code Generator (Lite mode) build 49521"
   677  0000                     CCPR4H equ 0F59h ;# 
   678                           opt subtitle "HI-TECH Software Omniscient Code Generator (Lite mode) build 49521"
   679  0000                     PSTR3CON equ 0F5Ah ;# 
   680                           opt subtitle "HI-TECH Software Omniscient Code Generator (Lite mode) build 49521"
   681  0000                     ECCP3AS equ 0F5Bh ;# 
   682                           opt subtitle "HI-TECH Software Omniscient Code Generator (Lite mode) build 49521"
   683  0000                     CCP3AS equ 0F5Bh ;# 
   684                           opt subtitle "HI-TECH Software Omniscient Code Generator (Lite mode) build 49521"
   685  0000                     PWM3CON equ 0F5Ch ;# 
   686                           opt subtitle "HI-TECH Software Omniscient Code Generator (Lite mode) build 49521"
   687  0000                     CCP3CON equ 0F5Dh ;# 
   688                           opt subtitle "HI-TECH Software Omniscient Code Generator (Lite mode) build 49521"
   689  0000                     CCPR3 equ 0F5Eh ;# 
   690                           opt subtitle "HI-TECH Software Omniscient Code Generator (Lite mode) build 49521"
   691  0000                     CCPR3L equ 0F5Eh ;# 
   692                           opt subtitle "HI-TECH Software Omniscient Code Generator (Lite mode) build 49521"
   693  0000                     CCPR3H equ 0F5Fh ;# 
   694                           opt subtitle "HI-TECH Software Omniscient Code Generator (Lite mode) build 49521"
   695  0000                     SLRCON equ 0F60h ;# 
   696                           opt subtitle "HI-TECH Software Omniscient Code Generator (Lite mode) build 49521"
   697  0000                     WPUB equ 0F61h ;# 
   698                           opt subtitle "HI-TECH Software Omniscient Code Generator (Lite mode) build 49521"
   699  0000                     IOCB equ 0F62h ;# 
   700                           opt subtitle "HI-TECH Software Omniscient Code Generator (Lite mode) build 49521"
   701  0000                     PSTR2CON equ 0F63h ;# 
   702                           opt subtitle "HI-TECH Software Omniscient Code Generator (Lite mode) build 49521"
   703  0000                     ECCP2AS equ 0F64h ;# 
   704                           opt subtitle "HI-TECH Software Omniscient Code Generator (Lite mode) build 49521"
   705  0000                     CCP2AS equ 0F64h ;# 
   706                           opt subtitle "HI-TECH Software Omniscient Code Generator (Lite mode) build 49521"
   707  0000                     PWM2CON equ 0F65h ;# 
   708                           opt subtitle "HI-TECH Software Omniscient Code Generator (Lite mode) build 49521"
   709  0000                     CCP2CON equ 0F66h ;# 
   710                           opt subtitle "HI-TECH Software Omniscient Code Generator (Lite mode) build 49521"
   711  0000                     CCPR2 equ 0F67h ;# 
   712                           opt subtitle "HI-TECH Software Omniscient Code Generator (Lite mode) build 49521"
   713  0000                     CCPR2L equ 0F67h ;# 
   714                           opt subtitle "HI-TECH Software Omniscient Code Generator (Lite mode) build 49521"
   715  0000                     CCPR2H equ 0F68h ;# 
   716                           opt subtitle "HI-TECH Software Omniscient Code Generator (Lite mode) build 49521"
   717  0000                     SSP2CON3 equ 0F69h ;# 
   718                           opt subtitle "HI-TECH Software Omniscient Code Generator (Lite mode) build 49521"
   719  0000                     SSP2MSK equ 0F6Ah ;# 
   720                           opt subtitle "HI-TECH Software Omniscient Code Generator (Lite mode) build 49521"
   721  0000                     SSP2CON2 equ 0F6Bh ;# 
   722                           opt subtitle "HI-TECH Software Omniscient Code Generator (Lite mode) build 49521"
   723  0000                     SSP2CON1 equ 0F6Ch ;# 
   724                           opt subtitle "HI-TECH Software Omniscient Code Generator (Lite mode) build 49521"
   725  0000                     SSP2STAT equ 0F6Dh ;# 
   726                           opt subtitle "HI-TECH Software Omniscient Code Generator (Lite mode) build 49521"
   727  0000                     SSP2ADD equ 0F6Eh ;# 
   728                           opt subtitle "HI-TECH Software Omniscient Code Generator (Lite mode) build 49521"
   729  0000                     SSP2BUF equ 0F6Fh ;# 
   730                           opt subtitle "HI-TECH Software Omniscient Code Generator (Lite mode) build 49521"
   731  0000                     BAUDCON2 equ 0F70h ;# 
   732                           opt subtitle "HI-TECH Software Omniscient Code Generator (Lite mode) build 49521"
   733  0000                     BAUD2CON equ 0F70h ;# 
   734                           opt subtitle "HI-TECH Software Omniscient Code Generator (Lite mode) build 49521"
   735  0000                     RCSTA2 equ 0F71h ;# 
   736                           opt subtitle "HI-TECH Software Omniscient Code Generator (Lite mode) build 49521"
   737  0000                     RC2STA equ 0F71h ;# 
   738                           opt subtitle "HI-TECH Software Omniscient Code Generator (Lite mode) build 49521"
   739  0000                     TXSTA2 equ 0F72h ;# 
   740                           opt subtitle "HI-TECH Software Omniscient Code Generator (Lite mode) build 49521"
   741  0000                     TX2STA equ 0F72h ;# 
   742                           opt subtitle "HI-TECH Software Omniscient Code Generator (Lite mode) build 49521"
   743  0000                     TXREG2 equ 0F73h ;# 
   744                           opt subtitle "HI-TECH Software Omniscient Code Generator (Lite mode) build 49521"
   745  0000                     TX2REG equ 0F73h ;# 
   746                           opt subtitle "HI-TECH Software Omniscient Code Generator (Lite mode) build 49521"
   747  0000                     RCREG2 equ 0F74h ;# 
   748                           opt subtitle "HI-TECH Software Omniscient Code Generator (Lite mode) build 49521"
   749  0000                     RC2REG equ 0F74h ;# 
   750                           opt subtitle "HI-TECH Software Omniscient Code Generator (Lite mode) build 49521"
   751  0000                     SPBRG2 equ 0F75h ;# 
   752                           opt subtitle "HI-TECH Software Omniscient Code Generator (Lite mode) build 49521"
   753  0000                     SP2BRG equ 0F75h ;# 
   754                           opt subtitle "HI-TECH Software Omniscient Code Generator (Lite mode) build 49521"
   755  0000                     SPBRGH2 equ 0F76h ;# 
   756                           opt subtitle "HI-TECH Software Omniscient Code Generator (Lite mode) build 49521"
   757  0000                     SP2BRGH equ 0F76h ;# 
   758                           opt subtitle "HI-TECH Software Omniscient Code Generator (Lite mode) build 49521"
   759  0000                     CM2CON1 equ 0F77h ;# 
   760                           opt subtitle "HI-TECH Software Omniscient Code Generator (Lite mode) build 49521"
   761  0000                     CM12CON equ 0F77h ;# 
   762                           opt subtitle "HI-TECH Software Omniscient Code Generator (Lite mode) build 49521"
   763  0000                     CM2CON0 equ 0F78h ;# 
   764                           opt subtitle "HI-TECH Software Omniscient Code Generator (Lite mode) build 49521"
   765  0000                     CM2CON equ 0F78h ;# 
   766                           opt subtitle "HI-TECH Software Omniscient Code Generator (Lite mode) build 49521"
   767  0000                     CM1CON0 equ 0F79h ;# 
   768                           opt subtitle "HI-TECH Software Omniscient Code Generator (Lite mode) build 49521"
   769  0000                     CM1CON equ 0F79h ;# 
   770                           opt subtitle "HI-TECH Software Omniscient Code Generator (Lite mode) build 49521"
   771  0000                     PIE4 equ 0F7Ah ;# 
   772                           opt subtitle "HI-TECH Software Omniscient Code Generator (Lite mode) build 49521"
   773  0000                     PIR4 equ 0F7Bh ;# 
   774                           opt subtitle "HI-TECH Software Omniscient Code Generator (Lite mode) build 49521"
   775  0000                     IPR4 equ 0F7Ch ;# 
   776                           opt subtitle "HI-TECH Software Omniscient Code Generator (Lite mode) build 49521"
   777  0000                     PIE5 equ 0F7Dh ;# 
   778                           opt subtitle "HI-TECH Software Omniscient Code Generator (Lite mode) build 49521"
   779  0000                     PIR5 equ 0F7Eh ;# 
   780                           opt subtitle "HI-TECH Software Omniscient Code Generator (Lite mode) build 49521"
   781  0000                     IPR5 equ 0F7Fh ;# 
   782                           opt subtitle "HI-TECH Software Omniscient Code Generator (Lite mode) build 49521"
   783  0000                     PORTA equ 0F80h ;# 
   784                           opt subtitle "HI-TECH Software Omniscient Code Generator (Lite mode) build 49521"
   785  0000                     PORTB equ 0F81h ;# 
   786                           opt subtitle "HI-TECH Software Omniscient Code Generator (Lite mode) build 49521"
   787  0000                     PORTC equ 0F82h ;# 
   788                           opt subtitle "HI-TECH Software Omniscient Code Generator (Lite mode) build 49521"
   789  0000                     PORTE equ 0F84h ;# 
   790                           opt subtitle "HI-TECH Software Omniscient Code Generator (Lite mode) build 49521"
   791  0000                     LATA equ 0F89h ;# 
   792                           opt subtitle "HI-TECH Software Omniscient Code Generator (Lite mode) build 49521"
   793  0000                     LATB equ 0F8Ah ;# 
   794                           opt subtitle "HI-TECH Software Omniscient Code Generator (Lite mode) build 49521"
   795  0000                     LATC equ 0F8Bh ;# 
   796                           opt subtitle "HI-TECH Software Omniscient Code Generator (Lite mode) build 49521"
   797  0000                     TRISA equ 0F92h ;# 
   798                           opt subtitle "HI-TECH Software Omniscient Code Generator (Lite mode) build 49521"
   799  0000                     DDRA equ 0F92h ;# 
   800                           opt subtitle "HI-TECH Software Omniscient Code Generator (Lite mode) build 49521"
   801  0000                     TRISB equ 0F93h ;# 
   802                           opt subtitle "HI-TECH Software Omniscient Code Generator (Lite mode) build 49521"
   803  0000                     DDRB equ 0F93h ;# 
   804                           opt subtitle "HI-TECH Software Omniscient Code Generator (Lite mode) build 49521"
   805  0000                     TRISC equ 0F94h ;# 
   806                           opt subtitle "HI-TECH Software Omniscient Code Generator (Lite mode) build 49521"
   807  0000                     DDRC equ 0F94h ;# 
   808                           opt subtitle "HI-TECH Software Omniscient Code Generator (Lite mode) build 49521"
   809  0000                     TRISE equ 0F96h ;# 
   810                           opt subtitle "HI-TECH Software Omniscient Code Generator (Lite mode) build 49521"
   811  0000                     OSCTUNE equ 0F9Bh ;# 
   812                           opt subtitle "HI-TECH Software Omniscient Code Generator (Lite mode) build 49521"
   813  0000                     HLVDCON equ 0F9Ch ;# 
   814                           opt subtitle "HI-TECH Software Omniscient Code Generator (Lite mode) build 49521"
   815  0000                     LVDCON equ 0F9Ch ;# 
   816                           opt subtitle "HI-TECH Software Omniscient Code Generator (Lite mode) build 49521"
   817  0000                     PIE1 equ 0F9Dh ;# 
   818                           opt subtitle "HI-TECH Software Omniscient Code Generator (Lite mode) build 49521"
   819  0000                     PIR1 equ 0F9Eh ;# 
   820                           opt subtitle "HI-TECH Software Omniscient Code Generator (Lite mode) build 49521"
   821  0000                     IPR1 equ 0F9Fh ;# 
   822                           opt subtitle "HI-TECH Software Omniscient Code Generator (Lite mode) build 49521"
   823  0000                     PIE2 equ 0FA0h ;# 
   824                           opt subtitle "HI-TECH Software Omniscient Code Generator (Lite mode) build 49521"
   825  0000                     PIR2 equ 0FA1h ;# 
   826                           opt subtitle "HI-TECH Software Omniscient Code Generator (Lite mode) build 49521"
   827  0000                     IPR2 equ 0FA2h ;# 
   828                           opt subtitle "HI-TECH Software Omniscient Code Generator (Lite mode) build 49521"
   829  0000                     PIE3 equ 0FA3h ;# 
   830                           opt subtitle "HI-TECH Software Omniscient Code Generator (Lite mode) build 49521"
   831  0000                     PIR3 equ 0FA4h ;# 
   832                           opt subtitle "HI-TECH Software Omniscient Code Generator (Lite mode) build 49521"
   833  0000                     IPR3 equ 0FA5h ;# 
   834                           opt subtitle "HI-TECH Software Omniscient Code Generator (Lite mode) build 49521"
   835  0000                     EECON1 equ 0FA6h ;# 
   836                           opt subtitle "HI-TECH Software Omniscient Code Generator (Lite mode) build 49521"
   837  0000                     EECON2 equ 0FA7h ;# 
   838                           opt subtitle "HI-TECH Software Omniscient Code Generator (Lite mode) build 49521"
   839  0000                     EEDATA equ 0FA8h ;# 
   840                           opt subtitle "HI-TECH Software Omniscient Code Generator (Lite mode) build 49521"
   841  0000                     EEADR equ 0FA9h ;# 
   842                           opt subtitle "HI-TECH Software Omniscient Code Generator (Lite mode) build 49521"
   843  0000                     RCSTA1 equ 0FABh ;# 
   844                           opt subtitle "HI-TECH Software Omniscient Code Generator (Lite mode) build 49521"
   845  0000                     RCSTA equ 0FABh ;# 
   846                           opt subtitle "HI-TECH Software Omniscient Code Generator (Lite mode) build 49521"
   847  0000                     RC1STA equ 0FABh ;# 
   848                           opt subtitle "HI-TECH Software Omniscient Code Generator (Lite mode) build 49521"
   849  0000                     TXSTA1 equ 0FACh ;# 
   850                           opt subtitle "HI-TECH Software Omniscient Code Generator (Lite mode) build 49521"
   851  0000                     TXSTA equ 0FACh ;# 
   852                           opt subtitle "HI-TECH Software Omniscient Code Generator (Lite mode) build 49521"
   853  0000                     TX1STA equ 0FACh ;# 
   854                           opt subtitle "HI-TECH Software Omniscient Code Generator (Lite mode) build 49521"
   855  0000                     TXREG1 equ 0FADh ;# 
   856                           opt subtitle "HI-TECH Software Omniscient Code Generator (Lite mode) build 49521"
   857  0000                     TXREG equ 0FADh ;# 
   858                           opt subtitle "HI-TECH Software Omniscient Code Generator (Lite mode) build 49521"
   859  0000                     TX1REG equ 0FADh ;# 
   860                           opt subtitle "HI-TECH Software Omniscient Code Generator (Lite mode) build 49521"
   861  0000                     RCREG1 equ 0FAEh ;# 
   862                           opt subtitle "HI-TECH Software Omniscient Code Generator (Lite mode) build 49521"
   863  0000                     RCREG equ 0FAEh ;# 
   864                           opt subtitle "HI-TECH Software Omniscient Code Generator (Lite mode) build 49521"
   865  0000                     RC1REG equ 0FAEh ;# 
   866                           opt subtitle "HI-TECH Software Omniscient Code Generator (Lite mode) build 49521"
   867  0000                     SPBRG1 equ 0FAFh ;# 
   868                           opt subtitle "HI-TECH Software Omniscient Code Generator (Lite mode) build 49521"
   869  0000                     SPBRG equ 0FAFh ;# 
   870                           opt subtitle "HI-TECH Software Omniscient Code Generator (Lite mode) build 49521"
   871  0000                     SP1BRG equ 0FAFh ;# 
   872                           opt subtitle "HI-TECH Software Omniscient Code Generator (Lite mode) build 49521"
   873  0000                     SPBRGH1 equ 0FB0h ;# 
   874                           opt subtitle "HI-TECH Software Omniscient Code Generator (Lite mode) build 49521"
   875  0000                     SPBRGH equ 0FB0h ;# 
   876                           opt subtitle "HI-TECH Software Omniscient Code Generator (Lite mode) build 49521"
   877  0000                     SP1BRGH equ 0FB0h ;# 
   878                           opt subtitle "HI-TECH Software Omniscient Code Generator (Lite mode) build 49521"
   879  0000                     T3CON equ 0FB1h ;# 
   880                           opt subtitle "HI-TECH Software Omniscient Code Generator (Lite mode) build 49521"
   881  0000                     TMR3 equ 0FB2h ;# 
   882                           opt subtitle "HI-TECH Software Omniscient Code Generator (Lite mode) build 49521"
   883  0000                     TMR3L equ 0FB2h ;# 
   884                           opt subtitle "HI-TECH Software Omniscient Code Generator (Lite mode) build 49521"
   885  0000                     TMR3H equ 0FB3h ;# 
   886                           opt subtitle "HI-TECH Software Omniscient Code Generator (Lite mode) build 49521"
   887  0000                     T3GCON equ 0FB4h ;# 
   888                           opt subtitle "HI-TECH Software Omniscient Code Generator (Lite mode) build 49521"
   889  0000                     ECCP1AS equ 0FB6h ;# 
   890                           opt subtitle "HI-TECH Software Omniscient Code Generator (Lite mode) build 49521"
   891  0000                     ECCPAS equ 0FB6h ;# 
   892                           opt subtitle "HI-TECH Software Omniscient Code Generator (Lite mode) build 49521"
   893  0000                     PWM1CON equ 0FB7h ;# 
   894                           opt subtitle "HI-TECH Software Omniscient Code Generator (Lite mode) build 49521"
   895  0000                     PWMCON equ 0FB7h ;# 
   896                           opt subtitle "HI-TECH Software Omniscient Code Generator (Lite mode) build 49521"
   897  0000                     BAUDCON1 equ 0FB8h ;# 
   898                           opt subtitle "HI-TECH Software Omniscient Code Generator (Lite mode) build 49521"
   899  0000                     BAUDCON equ 0FB8h ;# 
   900                           opt subtitle "HI-TECH Software Omniscient Code Generator (Lite mode) build 49521"
   901  0000                     BAUDCTL equ 0FB8h ;# 
   902                           opt subtitle "HI-TECH Software Omniscient Code Generator (Lite mode) build 49521"
   903  0000                     BAUD1CON equ 0FB8h ;# 
   904                           opt subtitle "HI-TECH Software Omniscient Code Generator (Lite mode) build 49521"
   905  0000                     PSTR1CON equ 0FB9h ;# 
   906                           opt subtitle "HI-TECH Software Omniscient Code Generator (Lite mode) build 49521"
   907  0000                     PSTRCON equ 0FB9h ;# 
   908                           opt subtitle "HI-TECH Software Omniscient Code Generator (Lite mode) build 49521"
   909  0000                     T2CON equ 0FBAh ;# 
   910                           opt subtitle "HI-TECH Software Omniscient Code Generator (Lite mode) build 49521"
   911  0000                     PR2 equ 0FBBh ;# 
   912                           opt subtitle "HI-TECH Software Omniscient Code Generator (Lite mode) build 49521"
   913  0000                     TMR2 equ 0FBCh ;# 
   914                           opt subtitle "HI-TECH Software Omniscient Code Generator (Lite mode) build 49521"
   915  0000                     CCP1CON equ 0FBDh ;# 
   916                           opt subtitle "HI-TECH Software Omniscient Code Generator (Lite mode) build 49521"
   917  0000                     CCPR1 equ 0FBEh ;# 
   918                           opt subtitle "HI-TECH Software Omniscient Code Generator (Lite mode) build 49521"
   919  0000                     CCPR1L equ 0FBEh ;# 
   920                           opt subtitle "HI-TECH Software Omniscient Code Generator (Lite mode) build 49521"
   921  0000                     CCPR1H equ 0FBFh ;# 
   922                           opt subtitle "HI-TECH Software Omniscient Code Generator (Lite mode) build 49521"
   923  0000                     ADCON2 equ 0FC0h ;# 
   924                           opt subtitle "HI-TECH Software Omniscient Code Generator (Lite mode) build 49521"
   925  0000                     ADCON1 equ 0FC1h ;# 
   926                           opt subtitle "HI-TECH Software Omniscient Code Generator (Lite mode) build 49521"
   927  0000                     ADCON0 equ 0FC2h ;# 
   928                           opt subtitle "HI-TECH Software Omniscient Code Generator (Lite mode) build 49521"
   929  0000                     ADRES equ 0FC3h ;# 
   930                           opt subtitle "HI-TECH Software Omniscient Code Generator (Lite mode) build 49521"
   931  0000                     ADRESL equ 0FC3h ;# 
   932                           opt subtitle "HI-TECH Software Omniscient Code Generator (Lite mode) build 49521"
   933  0000                     ADRESH equ 0FC4h ;# 
   934                           opt subtitle "HI-TECH Software Omniscient Code Generator (Lite mode) build 49521"
   935  0000                     SSP1CON2 equ 0FC5h ;# 
   936                           opt subtitle "HI-TECH Software Omniscient Code Generator (Lite mode) build 49521"
   937  0000                     SSPCON2 equ 0FC5h ;# 
   938                           opt subtitle "HI-TECH Software Omniscient Code Generator (Lite mode) build 49521"
   939  0000                     SSP1CON1 equ 0FC6h ;# 
   940                           opt subtitle "HI-TECH Software Omniscient Code Generator (Lite mode) build 49521"
   941  0000                     SSPCON1 equ 0FC6h ;# 
   942                           opt subtitle "HI-TECH Software Omniscient Code Generator (Lite mode) build 49521"
   943  0000                     SSP1STAT equ 0FC7h ;# 
   944                           opt subtitle "HI-TECH Software Omniscient Code Generator (Lite mode) build 49521"
   945  0000                     SSPSTAT equ 0FC7h ;# 
   946                           opt subtitle "HI-TECH Software Omniscient Code Generator (Lite mode) build 49521"
   947  0000                     SSP1ADD equ 0FC8h ;# 
   948                           opt subtitle "HI-TECH Software Omniscient Code Generator (Lite mode) build 49521"
   949  0000                     SSPADD equ 0FC8h ;# 
   950                           opt subtitle "HI-TECH Software Omniscient Code Generator (Lite mode) build 49521"
   951  0000                     SSP1BUF equ 0FC9h ;# 
   952                           opt subtitle "HI-TECH Software Omniscient Code Generator (Lite mode) build 49521"
   953  0000                     SSPBUF equ 0FC9h ;# 
   954                           opt subtitle "HI-TECH Software Omniscient Code Generator (Lite mode) build 49521"
   955  0000                     SSP1MSK equ 0FCAh ;# 
   956                           opt subtitle "HI-TECH Software Omniscient Code Generator (Lite mode) build 49521"
   957  0000                     SSPMSK equ 0FCAh ;# 
   958                           opt subtitle "HI-TECH Software Omniscient Code Generator (Lite mode) build 49521"
   959  0000                     SSP1CON3 equ 0FCBh ;# 
   960                           opt subtitle "HI-TECH Software Omniscient Code Generator (Lite mode) build 49521"
   961  0000                     SSPCON3 equ 0FCBh ;# 
   962                           opt subtitle "HI-TECH Software Omniscient Code Generator (Lite mode) build 49521"
   963  0000                     T1GCON equ 0FCCh ;# 
   964                           opt subtitle "HI-TECH Software Omniscient Code Generator (Lite mode) build 49521"
   965  0000                     T1CON equ 0FCDh ;# 
   966                           opt subtitle "HI-TECH Software Omniscient Code Generator (Lite mode) build 49521"
   967  0000                     TMR1 equ 0FCEh ;# 
   968                           opt subtitle "HI-TECH Software Omniscient Code Generator (Lite mode) build 49521"
   969  0000                     TMR1L equ 0FCEh ;# 
   970                           opt subtitle "HI-TECH Software Omniscient Code Generator (Lite mode) build 49521"
   971  0000                     TMR1H equ 0FCFh ;# 
   972                           opt subtitle "HI-TECH Software Omniscient Code Generator (Lite mode) build 49521"
   973  0000                     RCON equ 0FD0h ;# 
   974                           opt subtitle "HI-TECH Software Omniscient Code Generator (Lite mode) build 49521"
   975  0000                     WDTCON equ 0FD1h ;# 
   976                           opt subtitle "HI-TECH Software Omniscient Code Generator (Lite mode) build 49521"
   977  0000                     OSCCON2 equ 0FD2h ;# 
   978                           opt subtitle "HI-TECH Software Omniscient Code Generator (Lite mode) build 49521"
   979  0000                     OSCCON equ 0FD3h ;# 
   980                           opt subtitle "HI-TECH Software Omniscient Code Generator (Lite mode) build 49521"
   981  0000                     T0CON equ 0FD5h ;# 
   982                           opt subtitle "HI-TECH Software Omniscient Code Generator (Lite mode) build 49521"
   983  0000                     TMR0 equ 0FD6h ;# 
   984                           opt subtitle "HI-TECH Software Omniscient Code Generator (Lite mode) build 49521"
   985  0000                     TMR0L equ 0FD6h ;# 
   986                           opt subtitle "HI-TECH Software Omniscient Code Generator (Lite mode) build 49521"
   987  0000                     TMR0H equ 0FD7h ;# 
   988                           opt subtitle "HI-TECH Software Omniscient Code Generator (Lite mode) build 49521"
   989  0000                     STATUS equ 0FD8h ;# 
   990                           opt subtitle "HI-TECH Software Omniscient Code Generator (Lite mode) build 49521"
   991  0000                     FSR2 equ 0FD9h ;# 
   992                           opt subtitle "HI-TECH Software Omniscient Code Generator (Lite mode) build 49521"
   993  0000                     FSR2L equ 0FD9h ;# 
   994                           opt subtitle "HI-TECH Software Omniscient Code Generator (Lite mode) build 49521"
   995  0000                     FSR2H equ 0FDAh ;# 
   996                           opt subtitle "HI-TECH Software Omniscient Code Generator (Lite mode) build 49521"
   997  0000                     PLUSW2 equ 0FDBh ;# 
   998                           opt subtitle "HI-TECH Software Omniscient Code Generator (Lite mode) build 49521"
   999  0000                     PREINC2 equ 0FDCh ;# 
  1000                           opt subtitle "HI-TECH Software Omniscient Code Generator (Lite mode) build 49521"
  1001  0000                     POSTDEC2 equ 0FDDh ;# 
  1002                           opt subtitle "HI-TECH Software Omniscient Code Generator (Lite mode) build 49521"
  1003  0000                     POSTINC2 equ 0FDEh ;# 
  1004                           opt subtitle "HI-TECH Software Omniscient Code Generator (Lite mode) build 49521"
  1005  0000                     INDF2 equ 0FDFh ;# 
  1006                           opt subtitle "HI-TECH Software Omniscient Code Generator (Lite mode) build 49521"
  1007  0000                     BSR equ 0FE0h ;# 
  1008                           opt subtitle "HI-TECH Software Omniscient Code Generator (Lite mode) build 49521"
  1009  0000                     FSR1 equ 0FE1h ;# 
  1010                           opt subtitle "HI-TECH Software Omniscient Code Generator (Lite mode) build 49521"
  1011  0000                     FSR1L equ 0FE1h ;# 
  1012                           opt subtitle "HI-TECH Software Omniscient Code Generator (Lite mode) build 49521"
  1013  0000                     FSR1H equ 0FE2h ;# 
  1014                           opt subtitle "HI-TECH Software Omniscient Code Generator (Lite mode) build 49521"
  1015  0000                     PLUSW1 equ 0FE3h ;# 
  1016                           opt subtitle "HI-TECH Software Omniscient Code Generator (Lite mode) build 49521"
  1017  0000                     PREINC1 equ 0FE4h ;# 
  1018                           opt subtitle "HI-TECH Software Omniscient Code Generator (Lite mode) build 49521"
  1019  0000                     POSTDEC1 equ 0FE5h ;# 
  1020                           opt subtitle "HI-TECH Software Omniscient Code Generator (Lite mode) build 49521"
  1021  0000                     POSTINC1 equ 0FE6h ;# 
  1022                           opt subtitle "HI-TECH Software Omniscient Code Generator (Lite mode) build 49521"
  1023  0000                     INDF1 equ 0FE7h ;# 
  1024                           opt subtitle "HI-TECH Software Omniscient Code Generator (Lite mode) build 49521"
  1025  0000                     WREG equ 0FE8h ;# 
  1026                           opt subtitle "HI-TECH Software Omniscient Code Generator (Lite mode) build 49521"
  1027  0000                     FSR0 equ 0FE9h ;# 
  1028                           opt subtitle "HI-TECH Software Omniscient Code Generator (Lite mode) build 49521"
  1029  0000                     FSR0L equ 0FE9h ;# 
  1030                           opt subtitle "HI-TECH Software Omniscient Code Generator (Lite mode) build 49521"
  1031  0000                     FSR0H equ 0FEAh ;# 
  1032                           opt subtitle "HI-TECH Software Omniscient Code Generator (Lite mode) build 49521"
  1033  0000                     PLUSW0 equ 0FEBh ;# 
  1034                           opt subtitle "HI-TECH Software Omniscient Code Generator (Lite mode) build 49521"
  1035  0000                     PREINC0 equ 0FECh ;# 
  1036                           opt subtitle "HI-TECH Software Omniscient Code Generator (Lite mode) build 49521"
  1037  0000                     POSTDEC0 equ 0FEDh ;# 
  1038                           opt subtitle "HI-TECH Software Omniscient Code Generator (Lite mode) build 49521"
  1039  0000                     POSTINC0 equ 0FEEh ;# 
  1040                           opt subtitle "HI-TECH Software Omniscient Code Generator (Lite mode) build 49521"
  1041  0000                     INDF0 equ 0FEFh ;# 
  1042                           opt subtitle "HI-TECH Software Omniscient Code Generator (Lite mode) build 49521"
  1043  0000                     INTCON3 equ 0FF0h ;# 
  1044                           opt subtitle "HI-TECH Software Omniscient Code Generator (Lite mode) build 49521"
  1045  0000                     INTCON2 equ 0FF1h ;# 
  1046                           opt subtitle "HI-TECH Software Omniscient Code Generator (Lite mode) build 49521"
  1047  0000                     INTCON equ 0FF2h ;# 
  1048                           opt subtitle "HI-TECH Software Omniscient Code Generator (Lite mode) build 49521"
  1049  0000                     PROD equ 0FF3h ;# 
  1050                           opt subtitle "HI-TECH Software Omniscient Code Generator (Lite mode) build 49521"
  1051  0000                     PRODL equ 0FF3h ;# 
  1052                           opt subtitle "HI-TECH Software Omniscient Code Generator (Lite mode) build 49521"
  1053  0000                     PRODH equ 0FF4h ;# 
  1054                           opt subtitle "HI-TECH Software Omniscient Code Generator (Lite mode) build 49521"
  1055  0000                     TABLAT equ 0FF5h ;# 
  1056                           opt subtitle "HI-TECH Software Omniscient Code Generator (Lite mode) build 49521"
  1057  0000                     TBLPTR equ 0FF6h ;# 
  1058                           opt subtitle "HI-TECH Software Omniscient Code Generator (Lite mode) build 49521"
  1059  0000                     TBLPTRL equ 0FF6h ;# 
  1060                           opt subtitle "HI-TECH Software Omniscient Code Generator (Lite mode) build 49521"
  1061  0000                     TBLPTRH equ 0FF7h ;# 
  1062                           opt subtitle "HI-TECH Software Omniscient Code Generator (Lite mode) build 49521"
  1063  0000                     TBLPTRU equ 0FF8h ;# 
  1064                           opt subtitle "HI-TECH Software Omniscient Code Generator (Lite mode) build 49521"
  1065  0000                     PCLAT equ 0FF9h ;# 
  1066                           opt subtitle "HI-TECH Software Omniscient Code Generator (Lite mode) build 49521"
  1067  0000                     PC equ 0FF9h ;# 
  1068                           opt subtitle "HI-TECH Software Omniscient Code Generator (Lite mode) build 49521"
  1069  0000                     PCL equ 0FF9h ;# 
  1070                           opt subtitle "HI-TECH Software Omniscient Code Generator (Lite mode) build 49521"
  1071  0000                     PCLATH equ 0FFAh ;# 
  1072                           opt subtitle "HI-TECH Software Omniscient Code Generator (Lite mode) build 49521"
  1073  0000                     PCLATU equ 0FFBh ;# 
  1074                           opt subtitle "HI-TECH Software Omniscient Code Generator (Lite mode) build 49521"
  1075  0000                     STKPTR equ 0FFCh ;# 
  1076                           opt subtitle "HI-TECH Software Omniscient Code Generator (Lite mode) build 49521"
  1077  0000                     TOS equ 0FFDh ;# 
  1078                           opt subtitle "HI-TECH Software Omniscient Code Generator (Lite mode) build 49521"
  1079  0000                     TOSL equ 0FFDh ;# 
  1080                           opt subtitle "HI-TECH Software Omniscient Code Generator (Lite mode) build 49521"
  1081  0000                     TOSH equ 0FFEh ;# 
  1082                           opt subtitle "HI-TECH Software Omniscient Code Generator (Lite mode) build 49521"
  1083  0000                     TOSU equ 0FFFh ;# 
  1084                           opt subtitle "HI-TECH Software Omniscient Code Generator (Lite mode) build 49521"
  1085                           
  1086                           opt pagewidth 120
  1087                           
  1088                           	opt lm
  1089                           
  1090                           	processor	18F25K22
  1091                           porta	equ	0F80h
  1092                           portb	equ	0F81h
  1093                           portc	equ	0F82h
  1094                           portd	equ	0F83h
  1095                           porte	equ	0F84h
  1096                           lata	equ	0F89h
  1097                           latb	equ	0F8Ah
  1098                           latc	equ	0F8Bh
  1099                           latd	equ	0F8Ch
  1100                           late	equ	0F8Dh
  1101                           trisa	equ	0F92h
  1102                           trisb	equ	0F93h
  1103                           trisc	equ	0F94h
  1104                           trisd	equ	0F95h
  1105                           trise	equ	0F96h
  1106                           pie1	equ	0F9Dh
  1107                           pir1	equ	0F9Eh
  1108                           ipr1	equ	0F9Fh
  1109                           pie2	equ	0FA0h
  1110                           pir2	equ	0FA1h
  1111                           ipr2	equ	0FA2h
  1112  00103A                     __pidataCOMRAM:
  1113                           opt subtitle "HI-TECH Software Omniscient Code Generator (Lite mode) build 49521"
  1114                           
  1115                           opt pagewidth 120
  1116                           
  1117  00103A  0006               	dw	(06h)&0ffffh
  1118                           opt subtitle "HI-TECH Software Omniscient Code Generator (Lite mode) build 49521"
  1119                           
  1120  00103C  003B               	dw	(03Bh)&0ffffh
  1121                           opt subtitle "HI-TECH Software Omniscient Code Generator (Lite mode) build 49521"
  1122                           
  1123  00103E  003A               	dw	(03Ah)&0ffffh
  1124                           opt subtitle "HI-TECH Software Omniscient Code Generator (Lite mode) build 49521"
  1125                           
  1126                           opt pagewidth 120
  1127                           
  1128                           	opt lm
  1129                           
  1130                           	processor	18F25K22
  1131  0000                     _ANSELA	set	0xF38
  1132                           opt subtitle "HI-TECH Software Omniscient Code Generator (Lite mode) build 49521"
  1133  0000                     _ANSELB	set	0xF39
  1134                           opt subtitle "HI-TECH Software Omniscient Code Generator (Lite mode) build 49521"
  1135  0000                     _ANSELC	set	0xF3A
  1136                           opt subtitle "HI-TECH Software Omniscient Code Generator (Lite mode) build 49521"
  1137  0000                     _CCP1CON	set	0xFBD
  1138                           opt subtitle "HI-TECH Software Omniscient Code Generator (Lite mode) build 49521"
  1139  0000                     _CCPR1L	set	0xFBE
  1140                           opt subtitle "HI-TECH Software Omniscient Code Generator (Lite mode) build 49521"
  1141  0000                     _OSCCON	set	0xFD3
  1142                           opt subtitle "HI-TECH Software Omniscient Code Generator (Lite mode) build 49521"
  1143  0000                     _PORTA	set	0xF80
  1144                           opt subtitle "HI-TECH Software Omniscient Code Generator (Lite mode) build 49521"
  1145  0000                     _PORTB	set	0xF81
  1146                           opt subtitle "HI-TECH Software Omniscient Code Generator (Lite mode) build 49521"
  1147  0000                     _PORTC	set	0xF82
  1148                           opt subtitle "HI-TECH Software Omniscient Code Generator (Lite mode) build 49521"
  1149  0000                     _PORTCbits	set	0xF82
  1150                           opt subtitle "HI-TECH Software Omniscient Code Generator (Lite mode) build 49521"
  1151  0000                     _PR2	set	0xFBB
  1152                           opt subtitle "HI-TECH Software Omniscient Code Generator (Lite mode) build 49521"
  1153  0000                     _RCREG1	set	0xFAE
  1154                           opt subtitle "HI-TECH Software Omniscient Code Generator (Lite mode) build 49521"
  1155  0000                     _SPBRG1	set	0xFAF
  1156                           opt subtitle "HI-TECH Software Omniscient Code Generator (Lite mode) build 49521"
  1157  0000                     _T2CON	set	0xFBA
  1158                           opt subtitle "HI-TECH Software Omniscient Code Generator (Lite mode) build 49521"
  1159  0000                     _TMR0H	set	0xFD7
  1160                           opt subtitle "HI-TECH Software Omniscient Code Generator (Lite mode) build 49521"
  1161  0000                     _TMR0L	set	0xFD6
  1162                           opt subtitle "HI-TECH Software Omniscient Code Generator (Lite mode) build 49521"
  1163  0000                     _TMR1H	set	0xFCF
  1164                           opt subtitle "HI-TECH Software Omniscient Code Generator (Lite mode) build 49521"
  1165  0000                     _TMR1L	set	0xFCE
  1166                           opt subtitle "HI-TECH Software Omniscient Code Generator (Lite mode) build 49521"
  1167  0000                     _TMR2	set	0xFBC
  1168                           opt subtitle "HI-TECH Software Omniscient Code Generator (Lite mode) build 49521"
  1169  0000                     _TRISA	set	0xF92
  1170                           opt subtitle "HI-TECH Software Omniscient Code Generator (Lite mode) build 49521"
  1171  0000                     _TRISB	set	0xF93
  1172                           opt subtitle "HI-TECH Software Omniscient Code Generator (Lite mode) build 49521"
  1173  0000                     _TRISC	set	0xF94
  1174                           opt subtitle "HI-TECH Software Omniscient Code Generator (Lite mode) build 49521"
  1175  0000                     _BRGH1	set	0x7D62
  1176                           opt subtitle "HI-TECH Software Omniscient Code Generator (Lite mode) build 49521"
  1177  0000                     _CREN1	set	0x7D5C
  1178                           opt subtitle "HI-TECH Software Omniscient Code Generator (Lite mode) build 49521"
  1179  0000                     _GIE	set	0x7F97
  1180                           opt subtitle "HI-TECH Software Omniscient Code Generator (Lite mode) build 49521"
  1181  0000                     _INT0E	set	0x7F94
  1182                           opt subtitle "HI-TECH Software Omniscient Code Generator (Lite mode) build 49521"
  1183  0000                     _INT0F	set	0x7F91
  1184                           opt subtitle "HI-TECH Software Omniscient Code Generator (Lite mode) build 49521"
  1185  0000                     _INTEDG0	set	0x7F8E
  1186                           opt subtitle "HI-TECH Software Omniscient Code Generator (Lite mode) build 49521"
  1187  0000                     _LATA1	set	0x7C49
  1188                           opt subtitle "HI-TECH Software Omniscient Code Generator (Lite mode) build 49521"
  1189  0000                     _LATA2	set	0x7C4A
  1190                           opt subtitle "HI-TECH Software Omniscient Code Generator (Lite mode) build 49521"
  1191  0000                     _LATA3	set	0x7C4B
  1192                           opt subtitle "HI-TECH Software Omniscient Code Generator (Lite mode) build 49521"
  1193  0000                     _LATB1	set	0x7C51
  1194                           opt subtitle "HI-TECH Software Omniscient Code Generator (Lite mode) build 49521"
  1195  0000                     _LATB2	set	0x7C52
  1196                           opt subtitle "HI-TECH Software Omniscient Code Generator (Lite mode) build 49521"
  1197  0000                     _LATB3	set	0x7C53
  1198                           opt subtitle "HI-TECH Software Omniscient Code Generator (Lite mode) build 49521"
  1199  0000                     _PEIE	set	0x7F96
  1200                           opt subtitle "HI-TECH Software Omniscient Code Generator (Lite mode) build 49521"
  1201  0000                     _PSA	set	0x7EAB
  1202                           opt subtitle "HI-TECH Software Omniscient Code Generator (Lite mode) build 49521"
  1203  0000                     _RCIE	set	0x7CED
  1204                           opt subtitle "HI-TECH Software Omniscient Code Generator (Lite mode) build 49521"
  1205  0000                     _RCIF	set	0x7CF5
  1206                           opt subtitle "HI-TECH Software Omniscient Code Generator (Lite mode) build 49521"
  1207  0000                     _SPEN1	set	0x7D5F
  1208                           opt subtitle "HI-TECH Software Omniscient Code Generator (Lite mode) build 49521"
  1209  0000                     _SYNC1	set	0x7D64
  1210                           opt subtitle "HI-TECH Software Omniscient Code Generator (Lite mode) build 49521"
  1211  0000                     _T08BIT	set	0x7EAE
  1212                           opt subtitle "HI-TECH Software Omniscient Code Generator (Lite mode) build 49521"
  1213  0000                     _T0CS	set	0x7EAD
  1214                           opt subtitle "HI-TECH Software Omniscient Code Generator (Lite mode) build 49521"
  1215  0000                     _T0IE	set	0x7F95
  1216                           opt subtitle "HI-TECH Software Omniscient Code Generator (Lite mode) build 49521"
  1217  0000                     _T0IF	set	0x7F92
  1218                           opt subtitle "HI-TECH Software Omniscient Code Generator (Lite mode) build 49521"
  1219  0000                     _T0PS0	set	0x7EA8
  1220                           opt subtitle "HI-TECH Software Omniscient Code Generator (Lite mode) build 49521"
  1221  0000                     _T0PS1	set	0x7EA9
  1222                           opt subtitle "HI-TECH Software Omniscient Code Generator (Lite mode) build 49521"
  1223  0000                     _T0PS2	set	0x7EAA
  1224                           opt subtitle "HI-TECH Software Omniscient Code Generator (Lite mode) build 49521"
  1225  0000                     _T1CKPS0	set	0x7E6C
  1226                           opt subtitle "HI-TECH Software Omniscient Code Generator (Lite mode) build 49521"
  1227  0000                     _T1CKPS1	set	0x7E6D
  1228                           opt subtitle "HI-TECH Software Omniscient Code Generator (Lite mode) build 49521"
  1229  0000                     _T1RD16	set	0x7E69
  1230                           opt subtitle "HI-TECH Software Omniscient Code Generator (Lite mode) build 49521"
  1231  0000                     _T1SOSCEN	set	0x7E6B
  1232                           opt subtitle "HI-TECH Software Omniscient Code Generator (Lite mode) build 49521"
  1233  0000                     _T1SYNC	set	0x7E6A
  1234                           opt subtitle "HI-TECH Software Omniscient Code Generator (Lite mode) build 49521"
  1235  0000                     _TMR0IF	set	0x7F92
  1236                           opt subtitle "HI-TECH Software Omniscient Code Generator (Lite mode) build 49521"
  1237  0000                     _TMR0ON	set	0x7EAF
  1238                           opt subtitle "HI-TECH Software Omniscient Code Generator (Lite mode) build 49521"
  1239  0000                     _TMR1CS0	set	0x7E6E
  1240                           opt subtitle "HI-TECH Software Omniscient Code Generator (Lite mode) build 49521"
  1241  0000                     _TMR1CS1	set	0x7E6F
  1242                           opt subtitle "HI-TECH Software Omniscient Code Generator (Lite mode) build 49521"
  1243  0000                     _TMR1IE	set	0x7CE8
  1244                           opt subtitle "HI-TECH Software Omniscient Code Generator (Lite mode) build 49521"
  1245  0000                     _TMR1IF	set	0x7CF0
  1246                           opt subtitle "HI-TECH Software Omniscient Code Generator (Lite mode) build 49521"
  1247  0000                     _TMR1ON	set	0x7E68
  1248                           opt subtitle "HI-TECH Software Omniscient Code Generator (Lite mode) build 49521"
  1249  0000                     _TMR2ON	set	0x7DD2
  1250                           opt subtitle "HI-TECH Software Omniscient Code Generator (Lite mode) build 49521"
  1251                           
  1252  000600                     __psmallconst:
  1253                           opt subtitle "HI-TECH Software Omniscient Code Generator (Lite mode) build 49521"
  1254  000600                     __stringdata:
  1255                           opt subtitle "HI-TECH Software Omniscient Code Generator (Lite mode) build 49521"
  1256  000600                     STR_1:
  1257  000600  30                 	db	48	;'0'
  1258  000601  30                 	db	48	;'0'
  1259  000602  3A                 	db	58	;':'
  1260  000603  30                 	db	48	;'0'
  1261  000604  30                 	db	48	;'0'
  1262  000605  3A                 	db	58	;':'
  1263  000606  30                 	db	48	;'0'
  1264  000607  30                 	db	48	;'0'
  1265  000608  20                 	db	32
  1266  000609  20                 	db	32
  1267  00060A  20                 	db	32
  1268  00060B  20                 	db	32
  1269  00060C  20                 	db	32
  1270  00060D  20                 	db	32
  1271  00060E  20                 	db	32
  1272  00060F  00                 	db	0
  1273                           opt subtitle "HI-TECH Software Omniscient Code Generator (Lite mode) build 49521"
  1274  000610                     STR_3:
  1275  000610  4F                 	db	79	;'O'
  1276  000611  46                 	db	70	;'F'
  1277  000612  46                 	db	70	;'F'
  1278  000613  3A                 	db	58	;':'
  1279  000614  46                 	db	70	;'F'
  1280  000615  4C                 	db	76	;'L'
  1281  000616  48                 	db	72	;'H'
  1282  000617  41                 	db	65	;'A'
  1283  000618  00                 	db	0
  1284                           opt subtitle "HI-TECH Software Omniscient Code Generator (Lite mode) build 49521"
  1285  000619                     STR_2:
  1286  000619  4F                 	db	79	;'O'
  1287  00061A  4E                 	db	78	;'N'
  1288  00061B  3A                 	db	58	;':'
  1289  00061C  20                 	db	32
  1290  00061D  20                 	db	32
  1291  00061E  20                 	db	32
  1292  00061F  20                 	db	32
  1293  000620  00                 	db	0
  1294  0000                     STR_5	equ	STR_3+0
  1295  0000                     STR_4	equ	STR_2+0
  1296                           opt subtitle "HI-TECH Software Omniscient Code Generator (Lite mode) build 49521"
  1297  000621                     __end_of__stringdata:
  1298                           opt subtitle "HI-TECH Software Omniscient Code Generator (Lite mode) build 49521"
  1299                           
  1300  0000                     __CFG_IESO$OFF equ 0x0
  1301                           opt subtitle "HI-TECH Software Omniscient Code Generator (Lite mode) build 49521"
  1302  0000                     __CFG_FOSC$INTIO67 equ 0x0
  1303                           opt subtitle "HI-TECH Software Omniscient Code Generator (Lite mode) build 49521"
  1304  0000                     __CFG_WDTEN$OFF equ 0x0
  1305                           opt subtitle "HI-TECH Software Omniscient Code Generator (Lite mode) build 49521"
  1306  0000                     __CFG_MCLRE$EXTMCLR equ 0x0
  1307                           opt subtitle "HI-TECH Software Omniscient Code Generator (Lite mode) build 49521"
  1308  0000                     __CFG_LVP$OFF equ 0x0
  1309                           opt subtitle "HI-TECH Software Omniscient Code Generator (Lite mode) build 49521"
  1310                           
  1311                           opt pagewidth 120
  1312                           
  1313  000EE8                     __pcinit:
  1314                           opt subtitle "HI-TECH Software Omniscient Code Generator (Lite mode) build 49521"
  1315  000EE8                     start_initialization:
  1316                           opt subtitle "HI-TECH Software Omniscient Code Generator (Lite mode) build 49521"
  1317                           
  1318  000EE8                     __initialization:
  1319                           opt subtitle "HI-TECH Software Omniscient Code Generator (Lite mode) build 49521"
  1320                           
  1321  00001C                     __pbssCOMRAM:
  1322                           opt subtitle "HI-TECH Software Omniscient Code Generator (Lite mode) build 49521"
  1323  00001C                     _count:
  1324  00001C                            ds      2
  1325                           opt subtitle "HI-TECH Software Omniscient Code Generator (Lite mode) build 49521"
  1326                           
  1327  00001E                     _display_flag:
  1328  00001E                            ds      2
  1329                           opt subtitle "HI-TECH Software Omniscient Code Generator (Lite mode) build 49521"
  1330  000020                     _heater_count:
  1331  000020                            ds      2
  1332                           opt subtitle "HI-TECH Software Omniscient Code Generator (Lite mode) build 49521"
  1333                           
  1334  000022                     _i:
  1335  000022                            ds      2
  1336                           opt subtitle "HI-TECH Software Omniscient Code Generator (Lite mode) build 49521"
  1337  000024                     _min_heater:
  1338  000024                            ds      2
  1339                           opt subtitle "HI-TECH Software Omniscient Code Generator (Lite mode) build 49521"
  1340  000026                     _sec_heater:
  1341  000026                            ds      2
  1342                           opt subtitle "HI-TECH Software Omniscient Code Generator (Lite mode) build 49521"
  1343  000028                     _state:
  1344  000028                            ds      2
  1345                           opt subtitle "HI-TECH Software Omniscient Code Generator (Lite mode) build 49521"
  1346  00002A                     _data:
  1347  00002A                            ds      1
  1348                           opt subtitle "HI-TECH Software Omniscient Code Generator (Lite mode) build 49521"
  1349                           
  1350  00002B                     __pdataCOMRAM:
  1351                           opt subtitle "HI-TECH Software Omniscient Code Generator (Lite mode) build 49521"
  1352                           
  1353  00002B                     _hr:
  1354  00002B                            ds      2
  1355                           opt subtitle "HI-TECH Software Omniscient Code Generator (Lite mode) build 49521"
  1356                           
  1357                           opt pagewidth 120
  1358  00002D                     _min:
  1359  00002D                            ds      2
  1360                           opt subtitle "HI-TECH Software Omniscient Code Generator (Lite mode) build 49521"
  1361                           
  1362                           opt pagewidth 120
  1363  00002F                     _sec:
  1364  00002F                            ds      2
  1365                           opt subtitle "HI-TECH Software Omniscient Code Generator (Lite mode) build 49521"
  1366                           
  1367                           opt pagewidth 120
  1368  000EE8  EE00  F01C         lfsr	0,__pbssCOMRAM
  1369  000EEC  0E0F               movlw	15
  1370  000EEE                     clear_0:
  1371  000EEE  6AEE               clrf	postinc0,c
  1372  000EF0  06E8               decf	wreg
  1373  000EF2  E1FD               bnz	clear_0
  1374                           opt subtitle "HI-TECH Software Omniscient Code Generator (Lite mode) build 49521"
  1375                           
  1376                           opt pagewidth 120
  1377  000EF4  0E3A               	movlw	low (__pidataCOMRAM)
  1378  000EF6  6EF6               	movwf	tblptrl
  1379  000EF8  0E10               	movlw	high(__pidataCOMRAM)
  1380  000EFA  6EF7               	movwf	tblptrh
  1381  000EFC  0E00               	movlw	low highword(__pidataCOMRAM)
  1382  000EFE  6EF8               	movwf	tblptru
  1383  000F00  EE00  F02B         	lfsr	0,__pdataCOMRAM
  1384  000F04  EE10 F006          	lfsr	1,6
  1385  000F08                     	copy_data0:
  1386  000F08  0009               	tblrd	*+
  1387  000F0A  CFF5 FFEE          	movff	tablat, postinc0
  1388  000F0E  50E5               	movf	postdec1,w
  1389  000F10  50E1               	movf	fsr1l,w
  1390  000F12  E1FA               	bnz	copy_data0
  1391                           opt subtitle "HI-TECH Software Omniscient Code Generator (Lite mode) build 49521"
  1392                           
  1393                           opt pagewidth 120
  1394                           
  1395                           	opt lm
  1396  000F14                     end_of_initialization:
  1397  000F14                     __end_of__initialization:	GLOBAL	__Lsmallconst
  1398  000F14  0E00               	movlw	low highword(__Lsmallconst)
  1399  000F16  6EF8               	movwf	tblptru
  1400  000F18  0E06               	movlw	high(__Lsmallconst)
  1401  000F1A  6EF7               	movwf	tblptrh
  1402  000F1C  0100               movlb 0
  1403  000F1E  EF11  F003         goto _main	;jump to C main() function
  1404                           opt subtitle "HI-TECH Software Omniscient Code Generator (Lite mode) build 49521"
  1405                           
  1406  000001                     __pcstackCOMRAM:
  1407  000001                     ?_init_display:	; 0 bytes @ 0x0
  1408  000001                     ?_allInterupts:	; 0 bytes @ 0x0
  1409  000001                     ??_allInterupts:	; 0 bytes @ 0x0
  1410  000001                     ?_init_com:	; 0 bytes @ 0x0
  1411  000001                     ?_init_timer0:	; 0 bytes @ 0x0
  1412  000001                     ?_init_timer1:	; 0 bytes @ 0x0
  1413  000001                     ?_init_pwm:	; 0 bytes @ 0x0
  1414  000001                     ?_main:	; 0 bytes @ 0x0
  1415  000001                     	ds   14
  1416                           opt subtitle "HI-TECH Software Omniscient Code Generator (Lite mode) build 49521"
  1417  00000F                     ?_write_8bit_data:	; 0 bytes @ 0xE
  1418                           opt subtitle "HI-TECH Software Omniscient Code Generator (Lite mode) build 49521"
  1419  00000F                     ?_write_4bit_data:	; 0 bytes @ 0xE
  1420  00000F                     ??_init_com:	; 0 bytes @ 0xE
  1421  00000F                     ??_init_timer0:	; 0 bytes @ 0xE
  1422  00000F                     ??_init_timer1:	; 0 bytes @ 0xE
  1423                           opt subtitle "HI-TECH Software Omniscient Code Generator (Lite mode) build 49521"
  1424  00000F                     ?___awdiv:	; 2 bytes @ 0xE
  1425                           opt subtitle "HI-TECH Software Omniscient Code Generator (Lite mode) build 49521"
  1426  00000F                     ?___lwdiv:	; 2 bytes @ 0xE
  1427                           opt subtitle "HI-TECH Software Omniscient Code Generator (Lite mode) build 49521"
  1428  00000F                     ?___lwmod:	; 2 bytes @ 0xE
  1429                           opt subtitle "HI-TECH Software Omniscient Code Generator (Lite mode) build 49521"
  1430  00000F                     write_8bit_data@data_to_send:	; 1 bytes @ 0xE
  1431                           opt subtitle "HI-TECH Software Omniscient Code Generator (Lite mode) build 49521"
  1432  00000F                     write_4bit_data@data_to_send:	; 1 bytes @ 0xE
  1433                           opt subtitle "HI-TECH Software Omniscient Code Generator (Lite mode) build 49521"
  1434  00000F                     ___awdiv@dividend:	; 2 bytes @ 0xE
  1435                           opt subtitle "HI-TECH Software Omniscient Code Generator (Lite mode) build 49521"
  1436  00000F                     ___lwdiv@dividend:	; 2 bytes @ 0xE
  1437                           opt subtitle "HI-TECH Software Omniscient Code Generator (Lite mode) build 49521"
  1438  00000F                     ___lwmod@dividend:	; 2 bytes @ 0xE
  1439  00000F                     	ds   1
  1440  000010                     ??_write_8bit_data:	; 0 bytes @ 0xF
  1441  000010                     ??_write_4bit_data:	; 0 bytes @ 0xF
  1442  000010                     	ds   1
  1443                           opt subtitle "HI-TECH Software Omniscient Code Generator (Lite mode) build 49521"
  1444  000011                     write_4bit_data@temp:	; 1 bytes @ 0x10
  1445                           opt subtitle "HI-TECH Software Omniscient Code Generator (Lite mode) build 49521"
  1446  000011                     ___awdiv@divisor:	; 2 bytes @ 0x10
  1447                           opt subtitle "HI-TECH Software Omniscient Code Generator (Lite mode) build 49521"
  1448  000011                     ___lwdiv@divisor:	; 2 bytes @ 0x10
  1449                           opt subtitle "HI-TECH Software Omniscient Code Generator (Lite mode) build 49521"
  1450  000011                     ___lwmod@divisor:	; 2 bytes @ 0x10
  1451  000011                     	ds   1
  1452  000012                     ??_init_display:	; 0 bytes @ 0x11
  1453                           opt subtitle "HI-TECH Software Omniscient Code Generator (Lite mode) build 49521"
  1454  000012                     ?_write_command:	; 0 bytes @ 0x11
  1455                           opt subtitle "HI-TECH Software Omniscient Code Generator (Lite mode) build 49521"
  1456  000012                     write_command@command_to_write:	; 1 bytes @ 0x11
  1457  000012                     	ds   1
  1458  000013                     ??_write_command:	; 0 bytes @ 0x12
  1459  000013                     ??___awdiv:	; 0 bytes @ 0x12
  1460  000013                     ??___lwdiv:	; 0 bytes @ 0x12
  1461  000013                     ??___lwmod:	; 0 bytes @ 0x12
  1462  000013                     	ds   1
  1463                           opt subtitle "HI-TECH Software Omniscient Code Generator (Lite mode) build 49521"
  1464  000014                     ?_set_address_line1:	; 0 bytes @ 0x13
  1465                           opt subtitle "HI-TECH Software Omniscient Code Generator (Lite mode) build 49521"
  1466  000014                     ?_set_address_line2:	; 0 bytes @ 0x13
  1467                           opt subtitle "HI-TECH Software Omniscient Code Generator (Lite mode) build 49521"
  1468  000014                     set_address_line1@position:	; 1 bytes @ 0x13
  1469                           opt subtitle "HI-TECH Software Omniscient Code Generator (Lite mode) build 49521"
  1470  000014                     set_address_line2@position:	; 1 bytes @ 0x13
  1471                           opt subtitle "HI-TECH Software Omniscient Code Generator (Lite mode) build 49521"
  1472  000014                     ___awdiv@counter:	; 1 bytes @ 0x13
  1473                           opt subtitle "HI-TECH Software Omniscient Code Generator (Lite mode) build 49521"
  1474  000014                     ___lwmod@counter:	; 1 bytes @ 0x13
  1475                           opt subtitle "HI-TECH Software Omniscient Code Generator (Lite mode) build 49521"
  1476  000014                     ___lwdiv@quotient:	; 2 bytes @ 0x13
  1477  000014                     	ds   1
  1478  000015                     ??_set_address_line1:	; 0 bytes @ 0x14
  1479  000015                     ??_set_address_line2:	; 0 bytes @ 0x14
  1480                           opt subtitle "HI-TECH Software Omniscient Code Generator (Lite mode) build 49521"
  1481  000015                     ___awdiv@sign:	; 1 bytes @ 0x14
  1482  000015                     	ds   1
  1483                           opt subtitle "HI-TECH Software Omniscient Code Generator (Lite mode) build 49521"
  1484  000016                     ___lwdiv@counter:	; 1 bytes @ 0x15
  1485                           opt subtitle "HI-TECH Software Omniscient Code Generator (Lite mode) build 49521"
  1486  000016                     ___awdiv@quotient:	; 2 bytes @ 0x15
  1487  000016                     	ds   1
  1488                           opt subtitle "HI-TECH Software Omniscient Code Generator (Lite mode) build 49521"
  1489  000017                     ?_write_data:	; 0 bytes @ 0x16
  1490                           opt subtitle "HI-TECH Software Omniscient Code Generator (Lite mode) build 49521"
  1491  000017                     write_data@data_to_write:	; 1 bytes @ 0x16
  1492  000017                     	ds   1
  1493                           opt subtitle "HI-TECH Software Omniscient Code Generator (Lite mode) build 49521"
  1494  000018                     ?_send_msg:	; 0 bytes @ 0x17
  1495  000018                     ??_write_data:	; 0 bytes @ 0x17
  1496  000018                     ??_init_pwm:	; 0 bytes @ 0x17
  1497                           opt subtitle "HI-TECH Software Omniscient Code Generator (Lite mode) build 49521"
  1498  000018                     send_msg@text:	; 2 bytes @ 0x17
  1499  000018                     	ds   2
  1500  00001A                     ??_send_msg:	; 0 bytes @ 0x19
  1501  00001A                     ??_main:	; 0 bytes @ 0x19
  1502  00001A                     	ds   2
  1503                           opt subtitle "HI-TECH Software Omniscient Code Generator (Lite mode) build 49521"
  1504                           
  1505                           opt pagewidth 120
  1506                           
  1507                           	opt lm
  1508                           
  1509                           	processor	18F25K22
  1510                           porta	equ	0F80h
  1511                           portb	equ	0F81h
  1512                           portc	equ	0F82h
  1513                           portd	equ	0F83h
  1514                           porte	equ	0F84h
  1515                           lata	equ	0F89h
  1516                           latb	equ	0F8Ah
  1517                           latc	equ	0F8Bh
  1518                           latd	equ	0F8Ch
  1519                           late	equ	0F8Dh
  1520                           trisa	equ	0F92h
  1521                           trisb	equ	0F93h
  1522                           trisc	equ	0F94h
  1523                           trisd	equ	0F95h
  1524                           trise	equ	0F96h
  1525                           pie1	equ	0F9Dh
  1526                           pir1	equ	0F9Eh
  1527                           ipr1	equ	0F9Fh
  1528                           pie2	equ	0FA0h
  1529                           pir2	equ	0FA1h
  1530                           ipr2	equ	0FA2h
  1531                           t3con	equ	0FB1h
  1532                           tmr3l	equ	0FB2h
  1533                           tmr3h	equ	0FB3h
  1534                           ccp1con	equ	0FBDh
  1535                           ccpr1l	equ	0FBEh
  1536                           ccpr1h	equ	0FBFh
  1537                           adcon1	equ	0FC1h
  1538                           adcon0	equ	0FC2h
  1539                           adresl	equ	0FC3h
  1540                           adresh	equ	0FC4h
  1541                           sspcon2	equ	0FC5h
  1542                           sspcon1	equ	0FC6h
  1543                           sspstat	equ	0FC7h
  1544                           sspadd	equ	0FC8h
  1545                           sspbuf	equ	0FC9h
  1546                           t2con	equ	0FCAh
  1547                           pr2	equ	0FCBh
  1548                           tmr2	equ	0FCCh
  1549                           t1con	equ	0FCDh
  1550                           tmr1l	equ	0FCEh
  1551                           tmr1h	equ	0FCFh
  1552                           rcon	equ	0FD0h
  1553                           wdtcon	equ	0FD1h
  1554                           lvdcon	equ	0FD2h
  1555                           osccon	equ	0FD3h
  1556                           t0con	equ	0FD5h
  1557                           tmr0l	equ	0FD6h
  1558                           tmr0h	equ	0FD7h
  1559                           status	equ	0FD8h
  1560                           fsr2	equ	0FD9h
  1561                           fsr2l	equ	0FD9h
  1562                           fsr2h	equ	0FDAh
  1563                           plusw2	equ	0FDBh
  1564                           preinc2	equ	0FDCh
  1565                           postdec2	equ	0FDDh
  1566                           postinc2	equ	0FDEh
  1567                           indf2	equ	0FDFh
  1568                           bsr	equ	0FE0h
  1569                           fsr1	equ	0FE1h
  1570                           fsr1l	equ	0FE1h
  1571                           fsr1h	equ	0FE2h
  1572                           plusw1	equ	0FE3h
  1573                           preinc1	equ	0FE4h
  1574                           postdec1	equ	0FE5h
  1575                           postinc1	equ	0FE6h
  1576                           indf1	equ	0FE7h
  1577                           wreg	equ	0FE8h
  1578                           fsr0	equ	0FE9h
  1579                           fsr0l	equ	0FE9h
  1580                           fsr0h	equ	0FEAh
  1581                           plusw0	equ	0FEBh
  1582                           preinc0	equ	0FECh
  1583                           postdec0	equ	0FEDh
  1584                           postinc0	equ	0FEEh
  1585                           indf0	equ	0FEFh
  1586                           intcon3	equ	0FF0h
  1587                           intcon2	equ	0FF1h
  1588                           intcon	equ	0FF2h
  1589                           prod	equ	0FF3h
  1590                           prodl	equ	0FF3h
  1591                           prodh	equ	0FF4h
  1592                           tablat	equ	0FF5h
  1593                           tblptr	equ	0FF6h
  1594                           tblptrl	equ	0FF6h
  1595                           tblptrh	equ	0FF7h
  1596                           tblptru	equ	0FF8h
  1597                           pcl	equ	0FF9h
  1598                           pclat	equ	0FFAh
  1599                           pclath	equ	0FFAh
  1600                           pclatu	equ	0FFBh
  1601                           stkptr	equ	0FFCh
  1602                           tosl	equ	0FFDh
  1603                           tosh	equ	0FFEh
  1604                           tosu	equ	0FFFh
  1605                           skipnz macro
  1606                           	btfsc	status,2
  1607                           	endm
  1608                           	global	__ramtop
  1609                           	global	__accesstop
  1610                           # 46 "C:\Program Files (x86)\Microchip\xc8\v1.12\include\pic18f25k22.h"
  1611                           ANSELA equ 0F38h ;# 
  1612                           # 90 "C:\Program Files (x86)\Microchip\xc8\v1.12\include\pic18f25k22.h"
  1613                           ANSELB equ 0F39h ;# 
  1614                           # 139 "C:\Program Files (x86)\Microchip\xc8\v1.12\include\pic18f25k22.h"
  1615                           ANSELC equ 0F3Ah ;# 
  1616                           # 189 "C:\Program Files (x86)\Microchip\xc8\v1.12\include\pic18f25k22.h"
  1617                           PMD2 equ 0F3Dh ;# 
  1618                           # 226 "C:\Program Files (x86)\Microchip\xc8\v1.12\include\pic18f25k22.h"
  1619                           PMD1 equ 0F3Eh ;# 
  1620                           # 290 "C:\Program Files (x86)\Microchip\xc8\v1.12\include\pic18f25k22.h"
  1621                           PMD0 equ 0F3Fh ;# 
  1622                           # 369 "C:\Program Files (x86)\Microchip\xc8\v1.12\include\pic18f25k22.h"
  1623                           VREFCON2 equ 0F40h ;# 
  1624                           # 374 "C:\Program Files (x86)\Microchip\xc8\v1.12\include\pic18f25k22.h"
  1625                           DACCON1 equ 0F40h ;# 
  1626                           # 470 "C:\Program Files (x86)\Microchip\xc8\v1.12\include\pic18f25k22.h"
  1627                           VREFCON1 equ 0F41h ;# 
  1628                           # 475 "C:\Program Files (x86)\Microchip\xc8\v1.12\include\pic18f25k22.h"
  1629                           DACCON0 equ 0F41h ;# 
  1630                           # 589 "C:\Program Files (x86)\Microchip\xc8\v1.12\include\pic18f25k22.h"
  1631                           VREFCON0 equ 0F42h ;# 
  1632                           # 594 "C:\Program Files (x86)\Microchip\xc8\v1.12\include\pic18f25k22.h"
  1633                           FVRCON equ 0F42h ;# 
  1634                           # 682 "C:\Program Files (x86)\Microchip\xc8\v1.12\include\pic18f25k22.h"
  1635                           CTMUICON equ 0F43h ;# 
  1636                           # 687 "C:\Program Files (x86)\Microchip\xc8\v1.12\include\pic18f25k22.h"
  1637                           CTMUICONH equ 0F43h ;# 
  1638                           # 831 "C:\Program Files (x86)\Microchip\xc8\v1.12\include\pic18f25k22.h"
  1639                           CTMUCONL equ 0F44h ;# 
  1640                           # 836 "C:\Program Files (x86)\Microchip\xc8\v1.12\include\pic18f25k22.h"
  1641                           CTMUCON1 equ 0F44h ;# 
  1642                           # 984 "C:\Program Files (x86)\Microchip\xc8\v1.12\include\pic18f25k22.h"
  1643                           CTMUCONH equ 0F45h ;# 
  1644                           # 989 "C:\Program Files (x86)\Microchip\xc8\v1.12\include\pic18f25k22.h"
  1645                           CTMUCON0 equ 0F45h ;# 
  1646                           # 1095 "C:\Program Files (x86)\Microchip\xc8\v1.12\include\pic18f25k22.h"
  1647                           SRCON1 equ 0F46h ;# 
  1648                           # 1156 "C:\Program Files (x86)\Microchip\xc8\v1.12\include\pic18f25k22.h"
  1649                           SRCON0 equ 0F47h ;# 
  1650                           # 1226 "C:\Program Files (x86)\Microchip\xc8\v1.12\include\pic18f25k22.h"
  1651                           CCPTMRS1 equ 0F48h ;# 
  1652                           # 1277 "C:\Program Files (x86)\Microchip\xc8\v1.12\include\pic18f25k22.h"
  1653                           CCPTMRS0 equ 0F49h ;# 
  1654                           # 1350 "C:\Program Files (x86)\Microchip\xc8\v1.12\include\pic18f25k22.h"
  1655                           T6CON equ 0F4Ah ;# 
  1656                           # 1420 "C:\Program Files (x86)\Microchip\xc8\v1.12\include\pic18f25k22.h"
  1657                           PR6 equ 0F4Bh ;# 
  1658                           # 1439 "C:\Program Files (x86)\Microchip\xc8\v1.12\include\pic18f25k22.h"
  1659                           TMR6 equ 0F4Ch ;# 
  1660                           # 1458 "C:\Program Files (x86)\Microchip\xc8\v1.12\include\pic18f25k22.h"
  1661                           T5GCON equ 0F4Dh ;# 
  1662                           # 1552 "C:\Program Files (x86)\Microchip\xc8\v1.12\include\pic18f25k22.h"
  1663                           T5CON equ 0F4Eh ;# 
  1664                           # 1662 "C:\Program Files (x86)\Microchip\xc8\v1.12\include\pic18f25k22.h"
  1665                           TMR5 equ 0F4Fh ;# 
  1666                           # 1668 "C:\Program Files (x86)\Microchip\xc8\v1.12\include\pic18f25k22.h"
  1667                           TMR5L equ 0F4Fh ;# 
  1668                           # 1687 "C:\Program Files (x86)\Microchip\xc8\v1.12\include\pic18f25k22.h"
  1669                           TMR5H equ 0F50h ;# 
  1670                           # 1706 "C:\Program Files (x86)\Microchip\xc8\v1.12\include\pic18f25k22.h"
  1671                           T4CON equ 0F51h ;# 
  1672                           # 1776 "C:\Program Files (x86)\Microchip\xc8\v1.12\include\pic18f25k22.h"
  1673                           PR4 equ 0F52h ;# 
  1674                           # 1795 "C:\Program Files (x86)\Microchip\xc8\v1.12\include\pic18f25k22.h"
  1675                           TMR4 equ 0F53h ;# 
  1676                           # 1814 "C:\Program Files (x86)\Microchip\xc8\v1.12\include\pic18f25k22.h"
  1677                           CCP5CON equ 0F54h ;# 
  1678                           # 1877 "C:\Program Files (x86)\Microchip\xc8\v1.12\include\pic18f25k22.h"
  1679                           CCPR5 equ 0F55h ;# 
  1680                           # 1883 "C:\Program Files (x86)\Microchip\xc8\v1.12\include\pic18f25k22.h"
  1681                           CCPR5L equ 0F55h ;# 
  1682                           # 1902 "C:\Program Files (x86)\Microchip\xc8\v1.12\include\pic18f25k22.h"
  1683                           CCPR5H equ 0F56h ;# 
  1684                           # 1921 "C:\Program Files (x86)\Microchip\xc8\v1.12\include\pic18f25k22.h"
  1685                           CCP4CON equ 0F57h ;# 
  1686                           # 1984 "C:\Program Files (x86)\Microchip\xc8\v1.12\include\pic18f25k22.h"
  1687                           CCPR4 equ 0F58h ;# 
  1688                           # 1990 "C:\Program Files (x86)\Microchip\xc8\v1.12\include\pic18f25k22.h"
  1689                           CCPR4L equ 0F58h ;# 
  1690                           # 2009 "C:\Program Files (x86)\Microchip\xc8\v1.12\include\pic18f25k22.h"
  1691                           CCPR4H equ 0F59h ;# 
  1692                           # 2028 "C:\Program Files (x86)\Microchip\xc8\v1.12\include\pic18f25k22.h"
  1693                           PSTR3CON equ 0F5Ah ;# 
  1694                           # 2115 "C:\Program Files (x86)\Microchip\xc8\v1.12\include\pic18f25k22.h"
  1695                           ECCP3AS equ 0F5Bh ;# 
  1696                           # 2120 "C:\Program Files (x86)\Microchip\xc8\v1.12\include\pic18f25k22.h"
  1697                           CCP3AS equ 0F5Bh ;# 
  1698                           # 2356 "C:\Program Files (x86)\Microchip\xc8\v1.12\include\pic18f25k22.h"
  1699                           PWM3CON equ 0F5Ch ;# 
  1700                           # 2425 "C:\Program Files (x86)\Microchip\xc8\v1.12\include\pic18f25k22.h"
  1701                           CCP3CON equ 0F5Dh ;# 
  1702                           # 2506 "C:\Program Files (x86)\Microchip\xc8\v1.12\include\pic18f25k22.h"
  1703                           CCPR3 equ 0F5Eh ;# 
  1704                           # 2512 "C:\Program Files (x86)\Microchip\xc8\v1.12\include\pic18f25k22.h"
  1705                           CCPR3L equ 0F5Eh ;# 
  1706                           # 2531 "C:\Program Files (x86)\Microchip\xc8\v1.12\include\pic18f25k22.h"
  1707                           CCPR3H equ 0F5Fh ;# 
  1708                           # 2550 "C:\Program Files (x86)\Microchip\xc8\v1.12\include\pic18f25k22.h"
  1709                           SLRCON equ 0F60h ;# 
  1710                           # 2581 "C:\Program Files (x86)\Microchip\xc8\v1.12\include\pic18f25k22.h"
  1711                           WPUB equ 0F61h ;# 
  1712                           # 2642 "C:\Program Files (x86)\Microchip\xc8\v1.12\include\pic18f25k22.h"
  1713                           IOCB equ 0F62h ;# 
  1714                           # 2680 "C:\Program Files (x86)\Microchip\xc8\v1.12\include\pic18f25k22.h"
  1715                           PSTR2CON equ 0F63h ;# 
  1716                           # 2855 "C:\Program Files (x86)\Microchip\xc8\v1.12\include\pic18f25k22.h"
  1717                           ECCP2AS equ 0F64h ;# 
  1718                           # 2860 "C:\Program Files (x86)\Microchip\xc8\v1.12\include\pic18f25k22.h"
  1719                           CCP2AS equ 0F64h ;# 
  1720                           # 3096 "C:\Program Files (x86)\Microchip\xc8\v1.12\include\pic18f25k22.h"
  1721                           PWM2CON equ 0F65h ;# 
  1722                           # 3165 "C:\Program Files (x86)\Microchip\xc8\v1.12\include\pic18f25k22.h"
  1723                           CCP2CON equ 0F66h ;# 
  1724                           # 3240 "C:\Program Files (x86)\Microchip\xc8\v1.12\include\pic18f25k22.h"
  1725                           CCPR2 equ 0F67h ;# 
  1726                           # 3246 "C:\Program Files (x86)\Microchip\xc8\v1.12\include\pic18f25k22.h"
  1727                           CCPR2L equ 0F67h ;# 
  1728                           # 3265 "C:\Program Files (x86)\Microchip\xc8\v1.12\include\pic18f25k22.h"
  1729                           CCPR2H equ 0F68h ;# 
  1730                           # 3284 "C:\Program Files (x86)\Microchip\xc8\v1.12\include\pic18f25k22.h"
  1731                           SSP2CON3 equ 0F69h ;# 
  1732                           # 3345 "C:\Program Files (x86)\Microchip\xc8\v1.12\include\pic18f25k22.h"
  1733                           SSP2MSK equ 0F6Ah ;# 
  1734                           # 3406 "C:\Program Files (x86)\Microchip\xc8\v1.12\include\pic18f25k22.h"
  1735                           SSP2CON2 equ 0F6Bh ;# 
  1736                           # 3583 "C:\Program Files (x86)\Microchip\xc8\v1.12\include\pic18f25k22.h"
  1737                           SSP2CON1 equ 0F6Ch ;# 
  1738                           # 3723 "C:\Program Files (x86)\Microchip\xc8\v1.12\include\pic18f25k22.h"
  1739                           SSP2STAT equ 0F6Dh ;# 
  1740                           # 4115 "C:\Program Files (x86)\Microchip\xc8\v1.12\include\pic18f25k22.h"
  1741                           SSP2ADD equ 0F6Eh ;# 
  1742                           # 4205 "C:\Program Files (x86)\Microchip\xc8\v1.12\include\pic18f25k22.h"
  1743                           SSP2BUF equ 0F6Fh ;# 
  1744                           # 4224 "C:\Program Files (x86)\Microchip\xc8\v1.12\include\pic18f25k22.h"
  1745                           BAUDCON2 equ 0F70h ;# 
  1746                           # 4229 "C:\Program Files (x86)\Microchip\xc8\v1.12\include\pic18f25k22.h"
  1747                           BAUD2CON equ 0F70h ;# 
  1748                           # 4531 "C:\Program Files (x86)\Microchip\xc8\v1.12\include\pic18f25k22.h"
  1749                           RCSTA2 equ 0F71h ;# 
  1750                           # 4536 "C:\Program Files (x86)\Microchip\xc8\v1.12\include\pic18f25k22.h"
  1751                           RC2STA equ 0F71h ;# 
  1752                           # 4822 "C:\Program Files (x86)\Microchip\xc8\v1.12\include\pic18f25k22.h"
  1753                           TXSTA2 equ 0F72h ;# 
  1754                           # 4827 "C:\Program Files (x86)\Microchip\xc8\v1.12\include\pic18f25k22.h"
  1755                           TX2STA equ 0F72h ;# 
  1756                           # 5077 "C:\Program Files (x86)\Microchip\xc8\v1.12\include\pic18f25k22.h"
  1757                           TXREG2 equ 0F73h ;# 
  1758                           # 5082 "C:\Program Files (x86)\Microchip\xc8\v1.12\include\pic18f25k22.h"
  1759                           TX2REG equ 0F73h ;# 
  1760                           # 5114 "C:\Program Files (x86)\Microchip\xc8\v1.12\include\pic18f25k22.h"
  1761                           RCREG2 equ 0F74h ;# 
  1762                           # 5119 "C:\Program Files (x86)\Microchip\xc8\v1.12\include\pic18f25k22.h"
  1763                           RC2REG equ 0F74h ;# 
  1764                           # 5151 "C:\Program Files (x86)\Microchip\xc8\v1.12\include\pic18f25k22.h"
  1765                           SPBRG2 equ 0F75h ;# 
  1766                           # 5156 "C:\Program Files (x86)\Microchip\xc8\v1.12\include\pic18f25k22.h"
  1767                           SP2BRG equ 0F75h ;# 
  1768                           # 5188 "C:\Program Files (x86)\Microchip\xc8\v1.12\include\pic18f25k22.h"
  1769                           SPBRGH2 equ 0F76h ;# 
  1770                           # 5193 "C:\Program Files (x86)\Microchip\xc8\v1.12\include\pic18f25k22.h"
  1771                           SP2BRGH equ 0F76h ;# 
  1772                           # 5225 "C:\Program Files (x86)\Microchip\xc8\v1.12\include\pic18f25k22.h"
  1773                           CM2CON1 equ 0F77h ;# 
  1774                           # 5230 "C:\Program Files (x86)\Microchip\xc8\v1.12\include\pic18f25k22.h"
  1775                           CM12CON equ 0F77h ;# 
  1776                           # 5346 "C:\Program Files (x86)\Microchip\xc8\v1.12\include\pic18f25k22.h"
  1777                           CM2CON0 equ 0F78h ;# 
  1778                           # 5351 "C:\Program Files (x86)\Microchip\xc8\v1.12\include\pic18f25k22.h"
  1779                           CM2CON equ 0F78h ;# 
  1780                           # 5625 "C:\Program Files (x86)\Microchip\xc8\v1.12\include\pic18f25k22.h"
  1781                           CM1CON0 equ 0F79h ;# 
  1782                           # 5630 "C:\Program Files (x86)\Microchip\xc8\v1.12\include\pic18f25k22.h"
  1783                           CM1CON equ 0F79h ;# 
  1784                           # 6046 "C:\Program Files (x86)\Microchip\xc8\v1.12\include\pic18f25k22.h"
  1785                           PIE4 equ 0F7Ah ;# 
  1786                           # 6077 "C:\Program Files (x86)\Microchip\xc8\v1.12\include\pic18f25k22.h"
  1787                           PIR4 equ 0F7Bh ;# 
  1788                           # 6108 "C:\Program Files (x86)\Microchip\xc8\v1.12\include\pic18f25k22.h"
  1789  000622                     __ptext0:
  1790                           opt subtitle "HI-TECH Software Omniscient Code Generator (Lite mode) build 49521"
  1791                           
  1792                           opt pagewidth 120
  1793                           
  1794  0000                     	__size_of_main	equ	__end_of_main-_main
  1795                           opt subtitle "HI-TECH Software Omniscient Code Generator (Lite mode) build 49521"
  1796  000622                     _main:
  1797                           opt subtitle "HI-TECH Software Omniscient Code Generator (Lite mode) build 49521"
  1798                           
  1799                           opt pagewidth 120
  1800  000622                     l1081:
  1801                           opt subtitle "HI-TECH Software Omniscient Code Generator (Lite mode) build 49521"
  1802  000622  0E52               	movlw	low(052h)
  1803  000624  6ED3               	movwf	((c:4051)),c	;volatile
  1804                           opt subtitle "HI-TECH Software Omniscient Code Generator (Lite mode) build 49521"
  1805                           
  1806  000626  0E00               	movlw	low(0)
  1807  000628  6E92               	movwf	((c:3986)),c	;volatile
  1808                           opt subtitle "HI-TECH Software Omniscient Code Generator (Lite mode) build 49521"
  1809                           
  1810  00062A  0E00               	movlw	low(0)
  1811  00062C  010F               	movlb	15	; () banked
  1812  00062E  010F               	movlb	15	; () banked
  1813  000630  6F38               	movwf	((3896))&0ffh	;volatile
  1814                           opt subtitle "HI-TECH Software Omniscient Code Generator (Lite mode) build 49521"
  1815                           
  1816  000632  0E00               	movlw	low(0)
  1817  000634  6E80               	movwf	((c:3968)),c	;volatile
  1818                           opt subtitle "HI-TECH Software Omniscient Code Generator (Lite mode) build 49521"
  1819                           
  1820  000636  0E01               	movlw	low(01h)
  1821  000638  6E93               	movwf	((c:3987)),c	;volatile
  1822                           opt subtitle "HI-TECH Software Omniscient Code Generator (Lite mode) build 49521"
  1823                           
  1824  00063A  0E00               	movlw	low(0)
  1825  00063C  010F               	movlb	15	; () banked
  1826  00063E  010F               	movlb	15	; () banked
  1827  000640  6F39               	movwf	((3897))&0ffh	;volatile
  1828                           opt subtitle "HI-TECH Software Omniscient Code Generator (Lite mode) build 49521"
  1829                           
  1830  000642  0E00               	movlw	low(0)
  1831  000644  6E81               	movwf	((c:3969)),c	;volatile
  1832                           opt subtitle "HI-TECH Software Omniscient Code Generator (Lite mode) build 49521"
  1833                           
  1834  000646  0E83               	movlw	low(083h)
  1835  000648  6E94               	movwf	((c:3988)),c	;volatile
  1836                           opt subtitle "HI-TECH Software Omniscient Code Generator (Lite mode) build 49521"
  1837                           
  1838  00064A  0E00               	movlw	low(0)
  1839  00064C  010F               	movlb	15	; () banked
  1840  00064E  010F               	movlb	15	; () banked
  1841  000650  6F3A               	movwf	((3898))&0ffh	;volatile
  1842                           opt subtitle "HI-TECH Software Omniscient Code Generator (Lite mode) build 49521"
  1843                           
  1844  000652  0E00               	movlw	low(0)
  1845  000654  6E82               	movwf	((c:3970)),c	;volatile
  1846                           opt subtitle "HI-TECH Software Omniscient Code Generator (Lite mode) build 49521"
  1847                           
  1848  000656                     l1083:; BSR set to: 15
  1849                           opt subtitle "HI-TECH Software Omniscient Code Generator (Lite mode) build 49521"
  1850                           
  1851  000656  ECD0  F007         	call	_init_timer0	;wreg free
  1852                           opt subtitle "HI-TECH Software Omniscient Code Generator (Lite mode) build 49521"
  1853                           
  1854  00065A                     l1085:
  1855                           opt subtitle "HI-TECH Software Omniscient Code Generator (Lite mode) build 49521"
  1856  00065A  ECBF  F007         	call	_init_timer1	;wreg free
  1857                           opt subtitle "HI-TECH Software Omniscient Code Generator (Lite mode) build 49521"
  1858                           
  1859  00065E                     l1087:
  1860                           opt subtitle "HI-TECH Software Omniscient Code Generator (Lite mode) build 49521"
  1861  00065E  EC28  F006         	call	_init_display	;wreg free
  1862                           opt subtitle "HI-TECH Software Omniscient Code Generator (Lite mode) build 49521"
  1863                           
  1864  000662                     l1089:
  1865                           opt subtitle "HI-TECH Software Omniscient Code Generator (Lite mode) build 49521"
  1866  000662  ECAB  F007         	call	_init_pwm	;wreg free
  1867                           opt subtitle "HI-TECH Software Omniscient Code Generator (Lite mode) build 49521"
  1868                           
  1869  000666                     l1091:
  1870                           opt subtitle "HI-TECH Software Omniscient Code Generator (Lite mode) build 49521"
  1871  000666  ECEE  F007         	call	_init_com	;wreg free
  1872                           opt subtitle "HI-TECH Software Omniscient Code Generator (Lite mode) build 49521"
  1873                           
  1874  00066A                     l1093:
  1875                           opt subtitle "HI-TECH Software Omniscient Code Generator (Lite mode) build 49521"
  1876  00066A  6E1A               	movwf	(??_main+0+0)&0ffh,c
  1877  00066C  0E01               	movlw	low(01h)
  1878  00066E  6E14               	movwf	((c:?_set_address_line1)),c
  1879  000670  501A               	movf	(??_main+0+0)&0ffh,c,w
  1880  000672  ECF9  F007         	call	_set_address_line1	;wreg free
  1881                           opt subtitle "HI-TECH Software Omniscient Code Generator (Lite mode) build 49521"
  1882                           
  1883  000676                     l1095:
  1884                           opt subtitle "HI-TECH Software Omniscient Code Generator (Lite mode) build 49521"
  1885  000676  0E06               	movlw	high(STR_1)
  1886  000678  6E19               	movwf	((c:?_send_msg+1)),c
  1887  00067A  0E00               	movlw	low(STR_1)
  1888  00067C  6E18               	movwf	((c:?_send_msg)),c
  1889  00067E  EC91  F007         	call	_send_msg	;wreg free
  1890                           opt subtitle "HI-TECH Software Omniscient Code Generator (Lite mode) build 49521"
  1891                           
  1892  000682                     l1097:
  1893                           opt subtitle "HI-TECH Software Omniscient Code Generator (Lite mode) build 49521"
  1894  000682  6E1A               	movwf	(??_main+0+0)&0ffh,c
  1895  000684  0E01               	movlw	low(01h)
  1896  000686  6E14               	movwf	((c:?_set_address_line2)),c
  1897  000688  501A               	movf	(??_main+0+0)&0ffh,c,w
  1898  00068A  EC03  F008         	call	_set_address_line2	;wreg free
  1899                           opt subtitle "HI-TECH Software Omniscient Code Generator (Lite mode) build 49521"
  1900                           
  1901  00068E                     l1099:
  1902                           opt subtitle "HI-TECH Software Omniscient Code Generator (Lite mode) build 49521"
  1903  00068E  0E06               	movlw	high(STR_2)
  1904  000690  6E19               	movwf	((c:?_send_msg+1)),c
  1905  000692  0E19               	movlw	low(STR_2)
  1906  000694  6E18               	movwf	((c:?_send_msg)),c
  1907  000696  EC91  F007         	call	_send_msg	;wreg free
  1908                           opt subtitle "HI-TECH Software Omniscient Code Generator (Lite mode) build 49521"
  1909                           
  1910  00069A                     l1101:
  1911                           opt subtitle "HI-TECH Software Omniscient Code Generator (Lite mode) build 49521"
  1912  00069A  6E1A               	movwf	(??_main+0+0)&0ffh,c
  1913  00069C  0E09               	movlw	low(09h)
  1914  00069E  6E14               	movwf	((c:?_set_address_line2)),c
  1915  0006A0  501A               	movf	(??_main+0+0)&0ffh,c,w
  1916  0006A2  EC03  F008         	call	_set_address_line2	;wreg free
  1917                           opt subtitle "HI-TECH Software Omniscient Code Generator (Lite mode) build 49521"
  1918                           
  1919  0006A6                     l1103:
  1920                           opt subtitle "HI-TECH Software Omniscient Code Generator (Lite mode) build 49521"
  1921  0006A6  0E06               	movlw	high(STR_3)
  1922  0006A8  6E19               	movwf	((c:?_send_msg+1)),c
  1923  0006AA  0E10               	movlw	low(STR_3)
  1924  0006AC  6E18               	movwf	((c:?_send_msg)),c
  1925  0006AE  EC91  F007         	call	_send_msg	;wreg free
  1926                           opt subtitle "HI-TECH Software Omniscient Code Generator (Lite mode) build 49521"
  1927                           
  1928  0006B2                     l1105:
  1929                           opt subtitle "HI-TECH Software Omniscient Code Generator (Lite mode) build 49521"
  1930  0006B2  8289               	bsf	c:(31817/8),(31817)&7	;volatile
  1931  0006B4  D000               	goto	l1107
  1932                           opt subtitle "HI-TECH Software Omniscient Code Generator (Lite mode) build 49521"
  1933                           
  1934                           opt pagewidth 120
  1935  0006B6                     l194:
  1936                           opt subtitle "HI-TECH Software Omniscient Code Generator (Lite mode) build 49521"
  1937                           
  1938  0006B6                     l1107:
  1939                           opt subtitle "HI-TECH Software Omniscient Code Generator (Lite mode) build 49521"
  1940                           
  1941                           opt pagewidth 120
  1942  0006B6  B282               	btfsc	((c:3970)),c,1	;volatile
  1943  0006B8  D001               	goto	u181
  1944  0006BA  D001               	goto	u180
  1945  0006BC                     u181:
  1946  0006BC  D036               	goto	l1123
  1947  0006BE                     u180:
  1948                           opt subtitle "HI-TECH Software Omniscient Code Generator (Lite mode) build 49521"
  1949  0006BE                     l1109:
  1950                           opt subtitle "HI-TECH Software Omniscient Code Generator (Lite mode) build 49521"
  1951  0006BE  A082               	btfss	((c:3970)),c,0	;volatile
  1952  0006C0  D001               	goto	u191
  1953  0006C2  D001               	goto	u190
  1954  0006C4                     u191:
  1955  0006C4  D032               	goto	l1123
  1956  0006C6                     u190:
  1957                           opt subtitle "HI-TECH Software Omniscient Code Generator (Lite mode) build 49521"
  1958  0006C6                     l1111:
  1959  0006C6  B4BA               	btfsc	c:(32210/8),(32210)&7	;volatile
  1960  0006C8  D001               	goto	u201
  1961  0006CA  D001               	goto	u200
  1962  0006CC                     u201:
  1963  0006CC  D02E               	goto	l1123
  1964  0006CE                     u200:
  1965                           opt subtitle "HI-TECH Software Omniscient Code Generator (Lite mode) build 49521"
  1966                           
  1967  0006CE                     l1113:
  1968                           opt subtitle "HI-TECH Software Omniscient Code Generator (Lite mode) build 49521"
  1969                           
  1970  0006CE  0E82               	movlw	130
  1971  0006D0  6E1A               movwf	(??_main+0+0)&0ffh,c,f
  1972  0006D2  0EDD               	movlw	221
  1973  0006D4                     u517:
  1974  0006D4  2EE8               	decfsz	wreg,f
  1975  0006D6  D7FE               	goto	u517
  1976  0006D8  2E1A               	decfsz	(??_main+0+0)&0ffh,c,f
  1977  0006DA  D7FC               	goto	u517
  1978  0006DC  D000               	nop2
  1979                           opt subtitle "HI-TECH Software Omniscient Code Generator (Lite mode) build 49521"
  1980                           
  1981                           opt pagewidth 120
  1982  0006DE  0E82               	movlw	130
  1983  0006E0  6E1A               movwf	(??_main+0+0)&0ffh,c,f
  1984  0006E2  0EDD               	movlw	221
  1985  0006E4                     u527:
  1986  0006E4  2EE8               	decfsz	wreg,f
  1987  0006E6  D7FE               	goto	u527
  1988  0006E8  2E1A               	decfsz	(??_main+0+0)&0ffh,c,f
  1989  0006EA  D7FC               	goto	u527
  1990  0006EC  D000               	nop2
  1991                           opt subtitle "HI-TECH Software Omniscient Code Generator (Lite mode) build 49521"
  1992                           
  1993                           opt pagewidth 120
  1994  0006EE  0E82               	movlw	130
  1995  0006F0  6E1A               movwf	(??_main+0+0)&0ffh,c,f
  1996  0006F2  0EDD               	movlw	221
  1997  0006F4                     u537:
  1998  0006F4  2EE8               	decfsz	wreg,f
  1999  0006F6  D7FE               	goto	u537
  2000  0006F8  2E1A               	decfsz	(??_main+0+0)&0ffh,c,f
  2001  0006FA  D7FC               	goto	u537
  2002  0006FC  D000               	nop2
  2003                           opt subtitle "HI-TECH Software Omniscient Code Generator (Lite mode) build 49521"
  2004                           
  2005                           opt pagewidth 120
  2006  0006FE                     l1115:
  2007                           opt subtitle "HI-TECH Software Omniscient Code Generator (Lite mode) build 49521"
  2008  0006FE  4A2D               	infsnz	((c:_min)),c
  2009  000700  2A2E               	incf	((c:_min+1)),c
  2010                           opt subtitle "HI-TECH Software Omniscient Code Generator (Lite mode) build 49521"
  2011                           
  2012  000702  0E3C               	movlw	03Ch
  2013  000704  5C2D               	subwf	((c:_min)),c,w
  2014  000706  0E00               	movlw	0
  2015  000708  582E               	subwfb	((c:_min+1)),c,w
  2016  00070A  A0D8               	btfss	status,0
  2017  00070C  D001               	goto	u211
  2018  00070E  D001               	goto	u210
  2019  000710                     u211:
  2020  000710  D007               	goto	l1121
  2021  000712                     u210:
  2022                           opt subtitle "HI-TECH Software Omniscient Code Generator (Lite mode) build 49521"
  2023                           
  2024  000712                     l1117:
  2025                           opt subtitle "HI-TECH Software Omniscient Code Generator (Lite mode) build 49521"
  2026                           
  2027  000712  0E00               	movlw	high(0)
  2028  000714  6E2E               	movwf	((c:_min+1)),c
  2029  000716  0E00               	movlw	low(0)
  2030  000718  6E2D               	movwf	((c:_min)),c
  2031                           opt subtitle "HI-TECH Software Omniscient Code Generator (Lite mode) build 49521"
  2032                           
  2033  00071A                     l1119:
  2034                           opt subtitle "HI-TECH Software Omniscient Code Generator (Lite mode) build 49521"
  2035  00071A  4A2B               	infsnz	((c:_hr)),c
  2036  00071C  2A2C               	incf	((c:_hr+1)),c
  2037  00071E  D000               	goto	l1121
  2038                           opt subtitle "HI-TECH Software Omniscient Code Generator (Lite mode) build 49521"
  2039                           
  2040  000720                     l196:
  2041                           opt subtitle "HI-TECH Software Omniscient Code Generator (Lite mode) build 49521"
  2042                           
  2043  000720                     l1121:
  2044                           opt subtitle "HI-TECH Software Omniscient Code Generator (Lite mode) build 49521"
  2045                           
  2046  000720  0E00               	movlw	high(0)
  2047  000722  6E29               	movwf	((c:_state+1)),c
  2048  000724  0E00               	movlw	low(0)
  2049  000726  6E28               	movwf	((c:_state)),c
  2050  000728  D000               	goto	l1123
  2051                           opt subtitle "HI-TECH Software Omniscient Code Generator (Lite mode) build 49521"
  2052                           
  2053  00072A                     l195:
  2054                           opt subtitle "HI-TECH Software Omniscient Code Generator (Lite mode) build 49521"
  2055                           
  2056  00072A                     l1123:
  2057                           opt subtitle "HI-TECH Software Omniscient Code Generator (Lite mode) build 49521"
  2058                           
  2059                           opt pagewidth 120
  2060  00072A  B082               	btfsc	((c:3970)),c,0	;volatile
  2061  00072C  D001               	goto	u221
  2062  00072E  D001               	goto	u220
  2063  000730                     u221:
  2064  000730  D02F               	goto	l1133
  2065  000732                     u220:
  2066                           opt subtitle "HI-TECH Software Omniscient Code Generator (Lite mode) build 49521"
  2067  000732                     l1125:
  2068                           opt subtitle "HI-TECH Software Omniscient Code Generator (Lite mode) build 49521"
  2069  000732  A282               	btfss	((c:3970)),c,1	;volatile
  2070  000734  D001               	goto	u231
  2071  000736  D001               	goto	u230
  2072  000738                     u231:
  2073  000738  D02B               	goto	l1133
  2074  00073A                     u230:
  2075                           opt subtitle "HI-TECH Software Omniscient Code Generator (Lite mode) build 49521"
  2076                           
  2077  00073A                     l1127:
  2078                           opt subtitle "HI-TECH Software Omniscient Code Generator (Lite mode) build 49521"
  2079                           
  2080  00073A  0E82               	movlw	130
  2081  00073C  6E1A               movwf	(??_main+0+0)&0ffh,c,f
  2082  00073E  0EDD               	movlw	221
  2083  000740                     u547:
  2084  000740  2EE8               	decfsz	wreg,f
  2085  000742  D7FE               	goto	u547
  2086  000744  2E1A               	decfsz	(??_main+0+0)&0ffh,c,f
  2087  000746  D7FC               	goto	u547
  2088  000748  D000               	nop2
  2089                           opt subtitle "HI-TECH Software Omniscient Code Generator (Lite mode) build 49521"
  2090                           
  2091                           opt pagewidth 120
  2092  00074A  0E82               	movlw	130
  2093  00074C  6E1A               movwf	(??_main+0+0)&0ffh,c,f
  2094  00074E  0EDD               	movlw	221
  2095  000750                     u557:
  2096  000750  2EE8               	decfsz	wreg,f
  2097  000752  D7FE               	goto	u557
  2098  000754  2E1A               	decfsz	(??_main+0+0)&0ffh,c,f
  2099  000756  D7FC               	goto	u557
  2100  000758  D000               	nop2
  2101                           opt subtitle "HI-TECH Software Omniscient Code Generator (Lite mode) build 49521"
  2102                           
  2103                           opt pagewidth 120
  2104  00075A  0E82               	movlw	130
  2105  00075C  6E1A               movwf	(??_main+0+0)&0ffh,c,f
  2106  00075E  0EDD               	movlw	221
  2107  000760                     u567:
  2108  000760  2EE8               	decfsz	wreg,f
  2109  000762  D7FE               	goto	u567
  2110  000764  2E1A               	decfsz	(??_main+0+0)&0ffh,c,f
  2111  000766  D7FC               	goto	u567
  2112  000768  D000               	nop2
  2113                           opt subtitle "HI-TECH Software Omniscient Code Generator (Lite mode) build 49521"
  2114                           
  2115                           opt pagewidth 120
  2116  00076A                     l1129:
  2117                           opt subtitle "HI-TECH Software Omniscient Code Generator (Lite mode) build 49521"
  2118  00076A  4A2B               	infsnz	((c:_hr)),c
  2119  00076C  2A2C               	incf	((c:_hr+1)),c
  2120                           opt subtitle "HI-TECH Software Omniscient Code Generator (Lite mode) build 49521"
  2121                           
  2122  00076E  0E18               	movlw	018h
  2123  000770  5C2B               	subwf	((c:_hr)),c,w
  2124  000772  0E00               	movlw	0
  2125  000774  582C               	subwfb	((c:_hr+1)),c,w
  2126  000776  A0D8               	btfss	status,0
  2127  000778  D001               	goto	u241
  2128  00077A  D001               	goto	u240
  2129  00077C                     u241:
  2130  00077C  D004               	goto	l198
  2131  00077E                     u240:
  2132                           opt subtitle "HI-TECH Software Omniscient Code Generator (Lite mode) build 49521"
  2133                           
  2134  00077E                     l1131:
  2135                           opt subtitle "HI-TECH Software Omniscient Code Generator (Lite mode) build 49521"
  2136                           
  2137  00077E  0E00               	movlw	high(0)
  2138  000780  6E2C               	movwf	((c:_hr+1)),c
  2139  000782  0E00               	movlw	low(0)
  2140  000784  6E2B               	movwf	((c:_hr)),c
  2141                           opt subtitle "HI-TECH Software Omniscient Code Generator (Lite mode) build 49521"
  2142                           
  2143  000786                     l198:
  2144                           opt subtitle "HI-TECH Software Omniscient Code Generator (Lite mode) build 49521"
  2145                           
  2146                           opt pagewidth 120
  2147  000786  0E00               	movlw	high(0)
  2148  000788  6E29               	movwf	((c:_state+1)),c
  2149  00078A  0E00               	movlw	low(0)
  2150  00078C  6E28               	movwf	((c:_state)),c
  2151  00078E  D000               	goto	l1133
  2152                           opt subtitle "HI-TECH Software Omniscient Code Generator (Lite mode) build 49521"
  2153                           
  2154  000790                     l197:
  2155                           opt subtitle "HI-TECH Software Omniscient Code Generator (Lite mode) build 49521"
  2156                           
  2157  000790                     l1133:
  2158                           opt subtitle "HI-TECH Software Omniscient Code Generator (Lite mode) build 49521"
  2159                           
  2160                           opt pagewidth 120
  2161  000790  B082               	btfsc	((c:3970)),c,0	;volatile
  2162  000792  D001               	goto	u251
  2163  000794  D001               	goto	u250
  2164  000796                     u251:
  2165  000796  D02D               	goto	l1147
  2166  000798                     u250:
  2167                           opt subtitle "HI-TECH Software Omniscient Code Generator (Lite mode) build 49521"
  2168  000798                     l1135:
  2169                           opt subtitle "HI-TECH Software Omniscient Code Generator (Lite mode) build 49521"
  2170  000798  B282               	btfsc	((c:3970)),c,1	;volatile
  2171  00079A  D001               	goto	u261
  2172  00079C  D001               	goto	u260
  2173  00079E                     u261:
  2174  00079E  D029               	goto	l1147
  2175  0007A0                     u260:
  2176                           opt subtitle "HI-TECH Software Omniscient Code Generator (Lite mode) build 49521"
  2177                           
  2178  0007A0                     l1137:
  2179                           opt subtitle "HI-TECH Software Omniscient Code Generator (Lite mode) build 49521"
  2180                           
  2181  0007A0  0E82               	movlw	130
  2182  0007A2  6E1A               movwf	(??_main+0+0)&0ffh,c,f
  2183  0007A4  0EDD               	movlw	221
  2184  0007A6                     u577:
  2185  0007A6  2EE8               	decfsz	wreg,f
  2186  0007A8  D7FE               	goto	u577
  2187  0007AA  2E1A               	decfsz	(??_main+0+0)&0ffh,c,f
  2188  0007AC  D7FC               	goto	u577
  2189  0007AE  D000               	nop2
  2190                           opt subtitle "HI-TECH Software Omniscient Code Generator (Lite mode) build 49521"
  2191                           
  2192                           opt pagewidth 120
  2193  0007B0  0E82               	movlw	130
  2194  0007B2  6E1A               movwf	(??_main+0+0)&0ffh,c,f
  2195  0007B4  0EDD               	movlw	221
  2196  0007B6                     u587:
  2197  0007B6  2EE8               	decfsz	wreg,f
  2198  0007B8  D7FE               	goto	u587
  2199  0007BA  2E1A               	decfsz	(??_main+0+0)&0ffh,c,f
  2200  0007BC  D7FC               	goto	u587
  2201  0007BE  D000               	nop2
  2202                           opt subtitle "HI-TECH Software Omniscient Code Generator (Lite mode) build 49521"
  2203                           
  2204                           opt pagewidth 120
  2205  0007C0  0E82               	movlw	130
  2206  0007C2  6E1A               movwf	(??_main+0+0)&0ffh,c,f
  2207  0007C4  0EDD               	movlw	221
  2208  0007C6                     u597:
  2209  0007C6  2EE8               	decfsz	wreg,f
  2210  0007C8  D7FE               	goto	u597
  2211  0007CA  2E1A               	decfsz	(??_main+0+0)&0ffh,c,f
  2212  0007CC  D7FC               	goto	u597
  2213  0007CE  D000               	nop2
  2214                           opt subtitle "HI-TECH Software Omniscient Code Generator (Lite mode) build 49521"
  2215                           
  2216                           opt pagewidth 120
  2217  0007D0                     l1139:
  2218                           opt subtitle "HI-TECH Software Omniscient Code Generator (Lite mode) build 49521"
  2219  0007D0  0E00               	movlw	high(0)
  2220  0007D2  6E30               	movwf	((c:_sec+1)),c
  2221  0007D4  0E00               	movlw	low(0)
  2222  0007D6  6E2F               	movwf	((c:_sec)),c
  2223                           opt subtitle "HI-TECH Software Omniscient Code Generator (Lite mode) build 49521"
  2224                           
  2225  0007D8                     l1141:
  2226                           opt subtitle "HI-TECH Software Omniscient Code Generator (Lite mode) build 49521"
  2227  0007D8  0E00               	movlw	high(0)
  2228  0007DA  6E2E               	movwf	((c:_min+1)),c
  2229  0007DC  0E00               	movlw	low(0)
  2230  0007DE  6E2D               	movwf	((c:_min)),c
  2231                           opt subtitle "HI-TECH Software Omniscient Code Generator (Lite mode) build 49521"
  2232                           
  2233  0007E0                     l1143:
  2234                           opt subtitle "HI-TECH Software Omniscient Code Generator (Lite mode) build 49521"
  2235  0007E0  0E00               	movlw	high(0)
  2236  0007E2  6E2C               	movwf	((c:_hr+1)),c
  2237  0007E4  0E00               	movlw	low(0)
  2238  0007E6  6E2B               	movwf	((c:_hr)),c
  2239                           opt subtitle "HI-TECH Software Omniscient Code Generator (Lite mode) build 49521"
  2240                           
  2241  0007E8                     l1145:
  2242                           opt subtitle "HI-TECH Software Omniscient Code Generator (Lite mode) build 49521"
  2243  0007E8  0E00               	movlw	high(0)
  2244  0007EA  6E29               	movwf	((c:_state+1)),c
  2245  0007EC  0E00               	movlw	low(0)
  2246  0007EE  6E28               	movwf	((c:_state)),c
  2247  0007F0  D000               	goto	l1147
  2248                           opt subtitle "HI-TECH Software Omniscient Code Generator (Lite mode) build 49521"
  2249                           
  2250  0007F2                     l199:
  2251                           opt subtitle "HI-TECH Software Omniscient Code Generator (Lite mode) build 49521"
  2252                           
  2253  0007F2                     l1147:
  2254                           opt subtitle "HI-TECH Software Omniscient Code Generator (Lite mode) build 49521"
  2255                           
  2256  0007F2  502B               	movf	((c:_hr)),c,w
  2257  0007F4  0A12               	xorlw	18
  2258  0007F6  102C               	iorwf ((c:_hr+1)),c,w
  2259                           opt subtitle "HI-TECH Software Omniscient Code Generator (Lite mode) build 49521"
  2260  0007F8  A4D8               	btfss	status,2
  2261  0007FA  D001               	goto	u271
  2262  0007FC  D001               	goto	u270
  2263  0007FE                     u271:
  2264  0007FE  D012               	goto	l1157
  2265  000800                     u270:
  2266                           opt subtitle "HI-TECH Software Omniscient Code Generator (Lite mode) build 49521"
  2267  000800                     l1149:
  2268  000800  502E               	movf	((c:_min+1)),c,w
  2269  000802  102D               	iorwf ((c:_min)),c,w
  2270                           opt subtitle "HI-TECH Software Omniscient Code Generator (Lite mode) build 49521"
  2271  000804  A4D8               	btfss	status,2
  2272  000806  D001               	goto	u281
  2273  000808  D001               	goto	u280
  2274  00080A                     u281:
  2275  00080A  D00C               	goto	l1157
  2276  00080C                     u280:
  2277                           opt subtitle "HI-TECH Software Omniscient Code Generator (Lite mode) build 49521"
  2278  00080C                     l1151:
  2279  00080C  5030               	movf	((c:_sec+1)),c,w
  2280  00080E  102F               	iorwf ((c:_sec)),c,w
  2281                           opt subtitle "HI-TECH Software Omniscient Code Generator (Lite mode) build 49521"
  2282  000810  A4D8               	btfss	status,2
  2283  000812  D001               	goto	u291
  2284  000814  D001               	goto	u290
  2285  000816                     u291:
  2286  000816  D006               	goto	l1157
  2287  000818                     u290:
  2288                           opt subtitle "HI-TECH Software Omniscient Code Generator (Lite mode) build 49521"
  2289                           
  2290  000818                     l1153:
  2291                           opt subtitle "HI-TECH Software Omniscient Code Generator (Lite mode) build 49521"
  2292                           
  2293  000818  8489               	bsf	c:(31818/8),(31818)&7	;volatile
  2294                           opt subtitle "HI-TECH Software Omniscient Code Generator (Lite mode) build 49521"
  2295                           
  2296  00081A                     l1155:
  2297                           opt subtitle "HI-TECH Software Omniscient Code Generator (Lite mode) build 49521"
  2298  00081A  0E00               	movlw	high(06h)
  2299  00081C  6E29               	movwf	((c:_state+1)),c
  2300  00081E  0E06               	movlw	low(06h)
  2301  000820  6E28               	movwf	((c:_state)),c
  2302  000822  D000               	goto	l1157
  2303                           opt subtitle "HI-TECH Software Omniscient Code Generator (Lite mode) build 49521"
  2304                           
  2305  000824                     l200:
  2306                           opt subtitle "HI-TECH Software Omniscient Code Generator (Lite mode) build 49521"
  2307                           
  2308  000824                     l1157:
  2309                           opt subtitle "HI-TECH Software Omniscient Code Generator (Lite mode) build 49521"
  2310                           
  2311  000824  502B               	movf	((c:_hr)),c,w
  2312  000826  0A07               	xorlw	7
  2313  000828  102C               	iorwf ((c:_hr+1)),c,w
  2314                           opt subtitle "HI-TECH Software Omniscient Code Generator (Lite mode) build 49521"
  2315  00082A  A4D8               	btfss	status,2
  2316  00082C  D001               	goto	u301
  2317  00082E  D001               	goto	u300
  2318  000830                     u301:
  2319  000830  D015               	goto	l1169
  2320  000832                     u300:
  2321                           opt subtitle "HI-TECH Software Omniscient Code Generator (Lite mode) build 49521"
  2322  000832                     l1159:
  2323  000832  502E               	movf	((c:_min+1)),c,w
  2324  000834  102D               	iorwf ((c:_min)),c,w
  2325                           opt subtitle "HI-TECH Software Omniscient Code Generator (Lite mode) build 49521"
  2326  000836  A4D8               	btfss	status,2
  2327  000838  D001               	goto	u311
  2328  00083A  D001               	goto	u310
  2329  00083C                     u311:
  2330  00083C  D00F               	goto	l1169
  2331  00083E                     u310:
  2332                           opt subtitle "HI-TECH Software Omniscient Code Generator (Lite mode) build 49521"
  2333  00083E                     l1161:
  2334  00083E  5030               	movf	((c:_sec+1)),c,w
  2335  000840  102F               	iorwf ((c:_sec)),c,w
  2336                           opt subtitle "HI-TECH Software Omniscient Code Generator (Lite mode) build 49521"
  2337  000842  A4D8               	btfss	status,2
  2338  000844  D001               	goto	u321
  2339  000846  D001               	goto	u320
  2340  000848                     u321:
  2341  000848  D009               	goto	l1169
  2342  00084A                     u320:
  2343                           opt subtitle "HI-TECH Software Omniscient Code Generator (Lite mode) build 49521"
  2344                           
  2345  00084A                     l1163:
  2346                           opt subtitle "HI-TECH Software Omniscient Code Generator (Lite mode) build 49521"
  2347                           
  2348  00084A  0E00               	movlw	low(0)
  2349  00084C  6EBC               	movwf	((c:4028)),c	;volatile
  2350                           opt subtitle "HI-TECH Software Omniscient Code Generator (Lite mode) build 49521"
  2351                           
  2352  00084E                     l1165:
  2353                           opt subtitle "HI-TECH Software Omniscient Code Generator (Lite mode) build 49521"
  2354  00084E  9489               	bcf	c:(31818/8),(31818)&7	;volatile
  2355                           opt subtitle "HI-TECH Software Omniscient Code Generator (Lite mode) build 49521"
  2356                           
  2357  000850                     l1167:
  2358                           opt subtitle "HI-TECH Software Omniscient Code Generator (Lite mode) build 49521"
  2359  000850  84BA               	bsf	c:(32210/8),(32210)&7	;volatile
  2360                           opt subtitle "HI-TECH Software Omniscient Code Generator (Lite mode) build 49521"
  2361                           
  2362  000852  0E00               	movlw	high(07h)
  2363  000854  6E29               	movwf	((c:_state+1)),c
  2364  000856  0E07               	movlw	low(07h)
  2365  000858  6E28               	movwf	((c:_state)),c
  2366  00085A  D000               	goto	l1169
  2367                           opt subtitle "HI-TECH Software Omniscient Code Generator (Lite mode) build 49521"
  2368                           
  2369  00085C                     l201:
  2370                           opt subtitle "HI-TECH Software Omniscient Code Generator (Lite mode) build 49521"
  2371                           
  2372  00085C                     l1169:
  2373                           opt subtitle "HI-TECH Software Omniscient Code Generator (Lite mode) build 49521"
  2374                           
  2375  00085C  502B               	movf	((c:_hr)),c,w
  2376  00085E  0A16               	xorlw	22
  2377  000860  102C               	iorwf ((c:_hr+1)),c,w
  2378                           opt subtitle "HI-TECH Software Omniscient Code Generator (Lite mode) build 49521"
  2379  000862  A4D8               	btfss	status,2
  2380  000864  D001               	goto	u331
  2381  000866  D001               	goto	u330
  2382  000868                     u331:
  2383  000868  D012               	goto	l1179
  2384  00086A                     u330:
  2385                           opt subtitle "HI-TECH Software Omniscient Code Generator (Lite mode) build 49521"
  2386  00086A                     l1171:
  2387  00086A  502E               	movf	((c:_min+1)),c,w
  2388  00086C  102D               	iorwf ((c:_min)),c,w
  2389                           opt subtitle "HI-TECH Software Omniscient Code Generator (Lite mode) build 49521"
  2390  00086E  A4D8               	btfss	status,2
  2391  000870  D001               	goto	u341
  2392  000872  D001               	goto	u340
  2393  000874                     u341:
  2394  000874  D00C               	goto	l1179
  2395  000876                     u340:
  2396                           opt subtitle "HI-TECH Software Omniscient Code Generator (Lite mode) build 49521"
  2397  000876                     l1173:
  2398  000876  5030               	movf	((c:_sec+1)),c,w
  2399  000878  102F               	iorwf ((c:_sec)),c,w
  2400                           opt subtitle "HI-TECH Software Omniscient Code Generator (Lite mode) build 49521"
  2401  00087A  A4D8               	btfss	status,2
  2402  00087C  D001               	goto	u351
  2403  00087E  D001               	goto	u350
  2404  000880                     u351:
  2405  000880  D006               	goto	l1179
  2406  000882                     u350:
  2407                           opt subtitle "HI-TECH Software Omniscient Code Generator (Lite mode) build 49521"
  2408                           
  2409  000882                     l1175:
  2410                           opt subtitle "HI-TECH Software Omniscient Code Generator (Lite mode) build 49521"
  2411                           
  2412  000882  9689               	bcf	c:(31819/8),(31819)&7	;volatile
  2413                           opt subtitle "HI-TECH Software Omniscient Code Generator (Lite mode) build 49521"
  2414                           
  2415  000884                     l1177:
  2416                           opt subtitle "HI-TECH Software Omniscient Code Generator (Lite mode) build 49521"
  2417  000884  0E00               	movlw	high(08h)
  2418  000886  6E29               	movwf	((c:_state+1)),c
  2419  000888  0E08               	movlw	low(08h)
  2420  00088A  6E28               	movwf	((c:_state)),c
  2421  00088C  D000               	goto	l1179
  2422                           opt subtitle "HI-TECH Software Omniscient Code Generator (Lite mode) build 49521"
  2423                           
  2424  00088E                     l202:
  2425                           opt subtitle "HI-TECH Software Omniscient Code Generator (Lite mode) build 49521"
  2426                           
  2427  00088E                     l1179:
  2428                           opt subtitle "HI-TECH Software Omniscient Code Generator (Lite mode) build 49521"
  2429                           
  2430  00088E  A4BA               	btfss	c:(32210/8),(32210)&7	;volatile
  2431  000890  D001               	goto	u361
  2432  000892  D001               	goto	u360
  2433  000894                     u361:
  2434  000894  D1B0               	goto	l1231
  2435  000896                     u360:
  2436                           opt subtitle "HI-TECH Software Omniscient Code Generator (Lite mode) build 49521"
  2437  000896                     l1181:
  2438                           opt subtitle "HI-TECH Software Omniscient Code Generator (Lite mode) build 49521"
  2439  000896  B282               	btfsc	((c:3970)),c,1	;volatile
  2440  000898  D001               	goto	u371
  2441  00089A  D001               	goto	u370
  2442  00089C                     u371:
  2443  00089C  D1AC               	goto	l1231
  2444  00089E                     u370:
  2445                           opt subtitle "HI-TECH Software Omniscient Code Generator (Lite mode) build 49521"
  2446                           
  2447  00089E                     l1183:
  2448                           opt subtitle "HI-TECH Software Omniscient Code Generator (Lite mode) build 49521"
  2449                           
  2450  00089E  0E82               	movlw	130
  2451  0008A0  6E1A               movwf	(??_main+0+0)&0ffh,c,f
  2452  0008A2  0EDD               	movlw	221
  2453  0008A4                     u607:
  2454  0008A4  2EE8               	decfsz	wreg,f
  2455  0008A6  D7FE               	goto	u607
  2456  0008A8  2E1A               	decfsz	(??_main+0+0)&0ffh,c,f
  2457  0008AA  D7FC               	goto	u607
  2458  0008AC  D000               	nop2
  2459                           opt subtitle "HI-TECH Software Omniscient Code Generator (Lite mode) build 49521"
  2460                           
  2461                           opt pagewidth 120
  2462  0008AE  0E82               	movlw	130
  2463  0008B0  6E1A               movwf	(??_main+0+0)&0ffh,c,f
  2464  0008B2  0EDD               	movlw	221
  2465  0008B4                     u617:
  2466  0008B4  2EE8               	decfsz	wreg,f
  2467  0008B6  D7FE               	goto	u617
  2468  0008B8  2E1A               	decfsz	(??_main+0+0)&0ffh,c,f
  2469  0008BA  D7FC               	goto	u617
  2470  0008BC  D000               	nop2
  2471                           opt subtitle "HI-TECH Software Omniscient Code Generator (Lite mode) build 49521"
  2472                           
  2473                           opt pagewidth 120
  2474  0008BE  0E82               	movlw	130
  2475  0008C0  6E1A               movwf	(??_main+0+0)&0ffh,c,f
  2476  0008C2  0EDD               	movlw	221
  2477  0008C4                     u627:
  2478  0008C4  2EE8               	decfsz	wreg,f
  2479  0008C6  D7FE               	goto	u627
  2480  0008C8  2E1A               	decfsz	(??_main+0+0)&0ffh,c,f
  2481  0008CA  D7FC               	goto	u627
  2482  0008CC  D000               	nop2
  2483                           opt subtitle "HI-TECH Software Omniscient Code Generator (Lite mode) build 49521"
  2484                           
  2485                           opt pagewidth 120
  2486  0008CE                     l1185:
  2487                           opt subtitle "HI-TECH Software Omniscient Code Generator (Lite mode) build 49521"
  2488  0008CE  94BA               	bcf	c:(32210/8),(32210)&7	;volatile
  2489                           opt subtitle "HI-TECH Software Omniscient Code Generator (Lite mode) build 49521"
  2490                           
  2491  0008D0                     l1187:
  2492                           opt subtitle "HI-TECH Software Omniscient Code Generator (Lite mode) build 49521"
  2493  0008D0  0E00               	movlw	low(0)
  2494  0008D2  6EBC               	movwf	((c:4028)),c	;volatile
  2495                           opt subtitle "HI-TECH Software Omniscient Code Generator (Lite mode) build 49521"
  2496                           
  2497  0008D4                     l1189:
  2498                           opt subtitle "HI-TECH Software Omniscient Code Generator (Lite mode) build 49521"
  2499  0008D4  0E00               	movlw	high(09h)
  2500  0008D6  6E29               	movwf	((c:_state+1)),c
  2501  0008D8  0E09               	movlw	low(09h)
  2502  0008DA  6E28               	movwf	((c:_state)),c
  2503  0008DC  D18C               	goto	l1231
  2504                           opt subtitle "HI-TECH Software Omniscient Code Generator (Lite mode) build 49521"
  2505                           
  2506  0008DE                     l203:
  2507                           opt subtitle "HI-TECH Software Omniscient Code Generator (Lite mode) build 49521"
  2508                           
  2509                           opt pagewidth 120
  2510  0008DE  D18B               	goto	l1231
  2511                           opt subtitle "HI-TECH Software Omniscient Code Generator (Lite mode) build 49521"
  2512                           
  2513                           opt pagewidth 120
  2514                           
  2515  0008E0                     l205:
  2516                           opt subtitle "HI-TECH Software Omniscient Code Generator (Lite mode) build 49521"
  2517                           
  2518  0008E0                     l1191:
  2519                           opt subtitle "HI-TECH Software Omniscient Code Generator (Lite mode) build 49521"
  2520  0008E0  6E1A               	movwf	(??_main+0+0)&0ffh,c
  2521  0008E2  0E01               	movlw	low(01h)
  2522  0008E4  6E14               	movwf	((c:?_set_address_line1)),c
  2523  0008E6  501A               	movf	(??_main+0+0)&0ffh,c,w
  2524  0008E8  ECF9  F007         	call	_set_address_line1	;wreg free
  2525                           opt subtitle "HI-TECH Software Omniscient Code Generator (Lite mode) build 49521"
  2526                           
  2527  0008EC  C02B  F00F         	movff	(c:_hr),(c:?___lwdiv)
  2528  0008F0  C02C  F010         	movff	(c:_hr+1),(c:?___lwdiv+1)
  2529  0008F4  0E00               	movlw	high(0Ah)
  2530  0008F6  6E12               	movwf	(1+((c:?___lwdiv)+02h)),c
  2531  0008F8  0E0A               	movlw	low(0Ah)
  2532  0008FA  6E11               	movwf	(0+((c:?___lwdiv)+02h)),c
  2533  0008FC  ECE6  F006         	call	___lwdiv	;wreg free
  2534  000900  500F               	movf	(0+?___lwdiv),c,w
  2535  000902  0F30               	addlw	low(030h)
  2536  000904  6E17               	movwf	((c:?_write_data)),c
  2537  000906  EC16  F008         	call	_write_data	;wreg free
  2538                           opt subtitle "HI-TECH Software Omniscient Code Generator (Lite mode) build 49521"
  2539                           
  2540  00090A  C02B  F00F         	movff	(c:_hr),(c:?___lwmod)
  2541  00090E  C02C  F010         	movff	(c:_hr+1),(c:?___lwmod+1)
  2542  000912  0E00               	movlw	high(0Ah)
  2543  000914  6E12               	movwf	(1+((c:?___lwmod)+02h)),c
  2544  000916  0E0A               	movlw	low(0Ah)
  2545  000918  6E11               	movwf	(0+((c:?___lwmod)+02h)),c
  2546  00091A  EC1C  F007         	call	___lwmod	;wreg free
  2547  00091E  500F               	movf	(0+?___lwmod),c,w
  2548  000920  0F30               	addlw	low(030h)
  2549  000922  6E17               	movwf	((c:?_write_data)),c
  2550  000924  EC16  F008         	call	_write_data	;wreg free
  2551                           opt subtitle "HI-TECH Software Omniscient Code Generator (Lite mode) build 49521"
  2552                           
  2553  000928  6E1A               	movwf	(??_main+0+0)&0ffh,c
  2554  00092A  0E3A               	movlw	low(03Ah)
  2555  00092C  6E17               	movwf	((c:?_write_data)),c
  2556  00092E  501A               	movf	(??_main+0+0)&0ffh,c,w
  2557  000930  EC16  F008         	call	_write_data	;wreg free
  2558                           opt subtitle "HI-TECH Software Omniscient Code Generator (Lite mode) build 49521"
  2559                           
  2560  000934  C02D  F00F         	movff	(c:_min),(c:?___lwdiv)
  2561  000938  C02E  F010         	movff	(c:_min+1),(c:?___lwdiv+1)
  2562  00093C  0E00               	movlw	high(0Ah)
  2563  00093E  6E12               	movwf	(1+((c:?___lwdiv)+02h)),c
  2564  000940  0E0A               	movlw	low(0Ah)
  2565  000942  6E11               	movwf	(0+((c:?___lwdiv)+02h)),c
  2566  000944  ECE6  F006         	call	___lwdiv	;wreg free
  2567  000948  500F               	movf	(0+?___lwdiv),c,w
  2568  00094A  0F30               	addlw	low(030h)
  2569  00094C  6E17               	movwf	((c:?_write_data)),c
  2570  00094E  EC16  F008         	call	_write_data	;wreg free
  2571                           opt subtitle "HI-TECH Software Omniscient Code Generator (Lite mode) build 49521"
  2572                           
  2573  000952  C02D  F00F         	movff	(c:_min),(c:?___lwmod)
  2574  000956  C02E  F010         	movff	(c:_min+1),(c:?___lwmod+1)
  2575  00095A  0E00               	movlw	high(0Ah)
  2576  00095C  6E12               	movwf	(1+((c:?___lwmod)+02h)),c
  2577  00095E  0E0A               	movlw	low(0Ah)
  2578  000960  6E11               	movwf	(0+((c:?___lwmod)+02h)),c
  2579  000962  EC1C  F007         	call	___lwmod	;wreg free
  2580  000966  500F               	movf	(0+?___lwmod),c,w
  2581  000968  0F30               	addlw	low(030h)
  2582  00096A  6E17               	movwf	((c:?_write_data)),c
  2583  00096C  EC16  F008         	call	_write_data	;wreg free
  2584                           opt subtitle "HI-TECH Software Omniscient Code Generator (Lite mode) build 49521"
  2585                           
  2586  000970  6E1A               	movwf	(??_main+0+0)&0ffh,c
  2587  000972  0E3A               	movlw	low(03Ah)
  2588  000974  6E17               	movwf	((c:?_write_data)),c
  2589  000976  501A               	movf	(??_main+0+0)&0ffh,c,w
  2590  000978  EC16  F008         	call	_write_data	;wreg free
  2591                           opt subtitle "HI-TECH Software Omniscient Code Generator (Lite mode) build 49521"
  2592                           
  2593  00097C  C02F  F00F         	movff	(c:_sec),(c:?___lwdiv)
  2594  000980  C030  F010         	movff	(c:_sec+1),(c:?___lwdiv+1)
  2595  000984  0E00               	movlw	high(0Ah)
  2596  000986  6E12               	movwf	(1+((c:?___lwdiv)+02h)),c
  2597  000988  0E0A               	movlw	low(0Ah)
  2598  00098A  6E11               	movwf	(0+((c:?___lwdiv)+02h)),c
  2599  00098C  ECE6  F006         	call	___lwdiv	;wreg free
  2600  000990  500F               	movf	(0+?___lwdiv),c,w
  2601  000992  0F30               	addlw	low(030h)
  2602  000994  6E17               	movwf	((c:?_write_data)),c
  2603  000996  EC16  F008         	call	_write_data	;wreg free
  2604                           opt subtitle "HI-TECH Software Omniscient Code Generator (Lite mode) build 49521"
  2605                           
  2606  00099A  C02F  F00F         	movff	(c:_sec),(c:?___lwmod)
  2607  00099E  C030  F010         	movff	(c:_sec+1),(c:?___lwmod+1)
  2608  0009A2  0E00               	movlw	high(0Ah)
  2609  0009A4  6E12               	movwf	(1+((c:?___lwmod)+02h)),c
  2610  0009A6  0E0A               	movlw	low(0Ah)
  2611  0009A8  6E11               	movwf	(0+((c:?___lwmod)+02h)),c
  2612  0009AA  EC1C  F007         	call	___lwmod	;wreg free
  2613  0009AE  500F               	movf	(0+?___lwmod),c,w
  2614  0009B0  0F30               	addlw	low(030h)
  2615  0009B2  6E17               	movwf	((c:?_write_data)),c
  2616  0009B4  EC16  F008         	call	_write_data	;wreg free
  2617                           opt subtitle "HI-TECH Software Omniscient Code Generator (Lite mode) build 49521"
  2618                           
  2619  0009B8  D67E               	goto	l1107
  2620                           opt subtitle "HI-TECH Software Omniscient Code Generator (Lite mode) build 49521"
  2621                           
  2622                           opt pagewidth 120
  2623  0009BA                     l207:
  2624                           opt subtitle "HI-TECH Software Omniscient Code Generator (Lite mode) build 49521"
  2625                           
  2626  0009BA                     l1193:
  2627                           opt subtitle "HI-TECH Software Omniscient Code Generator (Lite mode) build 49521"
  2628  0009BA  6E1A               	movwf	(??_main+0+0)&0ffh,c
  2629  0009BC  0E05               	movlw	low(05h)
  2630  0009BE  6E14               	movwf	((c:?_set_address_line2)),c
  2631  0009C0  501A               	movf	(??_main+0+0)&0ffh,c,w
  2632  0009C2  EC03  F008         	call	_set_address_line2	;wreg free
  2633                           opt subtitle "HI-TECH Software Omniscient Code Generator (Lite mode) build 49521"
  2634                           
  2635  0009C6  6E1A               	movwf	(??_main+0+0)&0ffh,c
  2636  0009C8  0E4C               	movlw	low(04Ch)
  2637  0009CA  6E17               	movwf	((c:?_write_data)),c
  2638  0009CC  501A               	movf	(??_main+0+0)&0ffh,c,w
  2639  0009CE  EC16  F008         	call	_write_data	;wreg free
  2640                           opt subtitle "HI-TECH Software Omniscient Code Generator (Lite mode) build 49521"
  2641                           
  2642  0009D2  6E1A               	movwf	(??_main+0+0)&0ffh,c
  2643  0009D4  0E0E               	movlw	low(0Eh)
  2644  0009D6  6E14               	movwf	((c:?_set_address_line2)),c
  2645  0009D8  501A               	movf	(??_main+0+0)&0ffh,c,w
  2646  0009DA  EC03  F008         	call	_set_address_line2	;wreg free
  2647                           opt subtitle "HI-TECH Software Omniscient Code Generator (Lite mode) build 49521"
  2648                           
  2649  0009DE  6E1A               	movwf	(??_main+0+0)&0ffh,c
  2650  0009E0  0E20               	movlw	low(020h)
  2651  0009E2  6E17               	movwf	((c:?_write_data)),c
  2652  0009E4  501A               	movf	(??_main+0+0)&0ffh,c,w
  2653  0009E6  EC16  F008         	call	_write_data	;wreg free
  2654                           opt subtitle "HI-TECH Software Omniscient Code Generator (Lite mode) build 49521"
  2655                           
  2656  0009EA                     l1195:
  2657                           opt subtitle "HI-TECH Software Omniscient Code Generator (Lite mode) build 49521"
  2658  0009EA  0E00               	movlw	high(0)
  2659  0009EC  6E29               	movwf	((c:_state+1)),c
  2660  0009EE  0E00               	movlw	low(0)
  2661  0009F0  6E28               	movwf	((c:_state)),c
  2662                           opt subtitle "HI-TECH Software Omniscient Code Generator (Lite mode) build 49521"
  2663                           
  2664  0009F2  D661               	goto	l1107
  2665                           opt subtitle "HI-TECH Software Omniscient Code Generator (Lite mode) build 49521"
  2666                           
  2667                           opt pagewidth 120
  2668  0009F4                     l208:
  2669                           opt subtitle "HI-TECH Software Omniscient Code Generator (Lite mode) build 49521"
  2670                           
  2671  0009F4                     l1197:
  2672                           opt subtitle "HI-TECH Software Omniscient Code Generator (Lite mode) build 49521"
  2673  0009F4  6E1A               	movwf	(??_main+0+0)&0ffh,c
  2674  0009F6  0E05               	movlw	low(05h)
  2675  0009F8  6E14               	movwf	((c:?_set_address_line2)),c
  2676  0009FA  501A               	movf	(??_main+0+0)&0ffh,c,w
  2677  0009FC  EC03  F008         	call	_set_address_line2	;wreg free
  2678                           opt subtitle "HI-TECH Software Omniscient Code Generator (Lite mode) build 49521"
  2679                           
  2680  000A00  6E1A               	movwf	(??_main+0+0)&0ffh,c
  2681  000A02  0E20               	movlw	low(020h)
  2682  000A04  6E17               	movwf	((c:?_write_data)),c
  2683  000A06  501A               	movf	(??_main+0+0)&0ffh,c,w
  2684  000A08  EC16  F008         	call	_write_data	;wreg free
  2685                           opt subtitle "HI-TECH Software Omniscient Code Generator (Lite mode) build 49521"
  2686                           
  2687  000A0C  6E1A               	movwf	(??_main+0+0)&0ffh,c
  2688  000A0E  0E0E               	movlw	low(0Eh)
  2689  000A10  6E14               	movwf	((c:?_set_address_line2)),c
  2690  000A12  501A               	movf	(??_main+0+0)&0ffh,c,w
  2691  000A14  EC03  F008         	call	_set_address_line2	;wreg free
  2692                           opt subtitle "HI-TECH Software Omniscient Code Generator (Lite mode) build 49521"
  2693                           
  2694  000A18  6E1A               	movwf	(??_main+0+0)&0ffh,c
  2695  000A1A  0E4C               	movlw	low(04Ch)
  2696  000A1C  6E17               	movwf	((c:?_write_data)),c
  2697  000A1E  501A               	movf	(??_main+0+0)&0ffh,c,w
  2698  000A20  EC16  F008         	call	_write_data	;wreg free
  2699                           opt subtitle "HI-TECH Software Omniscient Code Generator (Lite mode) build 49521"
  2700                           
  2701  000A24                     l1199:
  2702                           opt subtitle "HI-TECH Software Omniscient Code Generator (Lite mode) build 49521"
  2703  000A24  0E00               	movlw	high(0)
  2704  000A26  6E29               	movwf	((c:_state+1)),c
  2705  000A28  0E00               	movlw	low(0)
  2706  000A2A  6E28               	movwf	((c:_state)),c
  2707                           opt subtitle "HI-TECH Software Omniscient Code Generator (Lite mode) build 49521"
  2708                           
  2709  000A2C  D644               	goto	l1107
  2710                           opt subtitle "HI-TECH Software Omniscient Code Generator (Lite mode) build 49521"
  2711                           
  2712                           opt pagewidth 120
  2713  000A2E                     l209:
  2714                           opt subtitle "HI-TECH Software Omniscient Code Generator (Lite mode) build 49521"
  2715                           
  2716  000A2E                     l1201:
  2717                           opt subtitle "HI-TECH Software Omniscient Code Generator (Lite mode) build 49521"
  2718  000A2E  6E1A               	movwf	(??_main+0+0)&0ffh,c
  2719  000A30  0E06               	movlw	low(06h)
  2720  000A32  6E14               	movwf	((c:?_set_address_line2)),c
  2721  000A34  501A               	movf	(??_main+0+0)&0ffh,c,w
  2722  000A36  EC03  F008         	call	_set_address_line2	;wreg free
  2723                           opt subtitle "HI-TECH Software Omniscient Code Generator (Lite mode) build 49521"
  2724                           
  2725  000A3A  6E1A               	movwf	(??_main+0+0)&0ffh,c
  2726  000A3C  0E48               	movlw	low(048h)
  2727  000A3E  6E17               	movwf	((c:?_write_data)),c
  2728  000A40  501A               	movf	(??_main+0+0)&0ffh,c,w
  2729  000A42  EC16  F008         	call	_write_data	;wreg free
  2730                           opt subtitle "HI-TECH Software Omniscient Code Generator (Lite mode) build 49521"
  2731                           
  2732  000A46  6E1A               	movwf	(??_main+0+0)&0ffh,c
  2733  000A48  0E0F               	movlw	low(0Fh)
  2734  000A4A  6E14               	movwf	((c:?_set_address_line2)),c
  2735  000A4C  501A               	movf	(??_main+0+0)&0ffh,c,w
  2736  000A4E  EC03  F008         	call	_set_address_line2	;wreg free
  2737                           opt subtitle "HI-TECH Software Omniscient Code Generator (Lite mode) build 49521"
  2738                           
  2739  000A52  6E1A               	movwf	(??_main+0+0)&0ffh,c
  2740  000A54  0E20               	movlw	low(020h)
  2741  000A56  6E17               	movwf	((c:?_write_data)),c
  2742  000A58  501A               	movf	(??_main+0+0)&0ffh,c,w
  2743  000A5A  EC16  F008         	call	_write_data	;wreg free
  2744                           opt subtitle "HI-TECH Software Omniscient Code Generator (Lite mode) build 49521"
  2745                           
  2746  000A5E                     l1203:
  2747                           opt subtitle "HI-TECH Software Omniscient Code Generator (Lite mode) build 49521"
  2748  000A5E  0E00               	movlw	high(0)
  2749  000A60  6E29               	movwf	((c:_state+1)),c
  2750  000A62  0E00               	movlw	low(0)
  2751  000A64  6E28               	movwf	((c:_state)),c
  2752                           opt subtitle "HI-TECH Software Omniscient Code Generator (Lite mode) build 49521"
  2753                           
  2754  000A66  D627               	goto	l1107
  2755                           opt subtitle "HI-TECH Software Omniscient Code Generator (Lite mode) build 49521"
  2756                           
  2757                           opt pagewidth 120
  2758  000A68                     l210:
  2759                           opt subtitle "HI-TECH Software Omniscient Code Generator (Lite mode) build 49521"
  2760                           
  2761  000A68                     l1205:
  2762                           opt subtitle "HI-TECH Software Omniscient Code Generator (Lite mode) build 49521"
  2763  000A68  6E1A               	movwf	(??_main+0+0)&0ffh,c
  2764  000A6A  0E06               	movlw	low(06h)
  2765  000A6C  6E14               	movwf	((c:?_set_address_line2)),c
  2766  000A6E  501A               	movf	(??_main+0+0)&0ffh,c,w
  2767  000A70  EC03  F008         	call	_set_address_line2	;wreg free
  2768                           opt subtitle "HI-TECH Software Omniscient Code Generator (Lite mode) build 49521"
  2769                           
  2770  000A74  6E1A               	movwf	(??_main+0+0)&0ffh,c
  2771  000A76  0E20               	movlw	low(020h)
  2772  000A78  6E17               	movwf	((c:?_write_data)),c
  2773  000A7A  501A               	movf	(??_main+0+0)&0ffh,c,w
  2774  000A7C  EC16  F008         	call	_write_data	;wreg free
  2775                           opt subtitle "HI-TECH Software Omniscient Code Generator (Lite mode) build 49521"
  2776                           
  2777  000A80  6E1A               	movwf	(??_main+0+0)&0ffh,c
  2778  000A82  0E0F               	movlw	low(0Fh)
  2779  000A84  6E14               	movwf	((c:?_set_address_line2)),c
  2780  000A86  501A               	movf	(??_main+0+0)&0ffh,c,w
  2781  000A88  EC03  F008         	call	_set_address_line2	;wreg free
  2782                           opt subtitle "HI-TECH Software Omniscient Code Generator (Lite mode) build 49521"
  2783                           
  2784  000A8C  6E1A               	movwf	(??_main+0+0)&0ffh,c
  2785  000A8E  0E48               	movlw	low(048h)
  2786  000A90  6E17               	movwf	((c:?_write_data)),c
  2787  000A92  501A               	movf	(??_main+0+0)&0ffh,c,w
  2788  000A94  EC16  F008         	call	_write_data	;wreg free
  2789                           opt subtitle "HI-TECH Software Omniscient Code Generator (Lite mode) build 49521"
  2790                           
  2791  000A98                     l1207:
  2792                           opt subtitle "HI-TECH Software Omniscient Code Generator (Lite mode) build 49521"
  2793  000A98  0E00               	movlw	high(0)
  2794  000A9A  6E29               	movwf	((c:_state+1)),c
  2795  000A9C  0E00               	movlw	low(0)
  2796  000A9E  6E28               	movwf	((c:_state)),c
  2797                           opt subtitle "HI-TECH Software Omniscient Code Generator (Lite mode) build 49521"
  2798                           
  2799  000AA0  D60A               	goto	l1107
  2800                           opt subtitle "HI-TECH Software Omniscient Code Generator (Lite mode) build 49521"
  2801                           
  2802                           opt pagewidth 120
  2803  000AA2                     l211:
  2804                           opt subtitle "HI-TECH Software Omniscient Code Generator (Lite mode) build 49521"
  2805                           
  2806  000AA2                     l1209:
  2807                           opt subtitle "HI-TECH Software Omniscient Code Generator (Lite mode) build 49521"
  2808  000AA2  6E1A               	movwf	(??_main+0+0)&0ffh,c
  2809  000AA4  0E01               	movlw	low(01h)
  2810  000AA6  6E14               	movwf	((c:?_set_address_line2)),c
  2811  000AA8  501A               	movf	(??_main+0+0)&0ffh,c,w
  2812  000AAA  EC03  F008         	call	_set_address_line2	;wreg free
  2813                           opt subtitle "HI-TECH Software Omniscient Code Generator (Lite mode) build 49521"
  2814                           
  2815  000AAE  0E06               	movlw	high(STR_4)
  2816  000AB0  6E19               	movwf	((c:?_send_msg+1)),c
  2817  000AB2  0E19               	movlw	low(STR_4)
  2818  000AB4  6E18               	movwf	((c:?_send_msg)),c
  2819  000AB6  EC91  F007         	call	_send_msg	;wreg free
  2820                           opt subtitle "HI-TECH Software Omniscient Code Generator (Lite mode) build 49521"
  2821                           
  2822  000ABA  6E1A               	movwf	(??_main+0+0)&0ffh,c
  2823  000ABC  0E09               	movlw	low(09h)
  2824  000ABE  6E14               	movwf	((c:?_set_address_line2)),c
  2825  000AC0  501A               	movf	(??_main+0+0)&0ffh,c,w
  2826  000AC2  EC03  F008         	call	_set_address_line2	;wreg free
  2827                           opt subtitle "HI-TECH Software Omniscient Code Generator (Lite mode) build 49521"
  2828                           
  2829  000AC6  0E06               	movlw	high(STR_5)
  2830  000AC8  6E19               	movwf	((c:?_send_msg+1)),c
  2831  000ACA  0E10               	movlw	low(STR_5)
  2832  000ACC  6E18               	movwf	((c:?_send_msg)),c
  2833  000ACE  EC91  F007         	call	_send_msg	;wreg free
  2834                           opt subtitle "HI-TECH Software Omniscient Code Generator (Lite mode) build 49521"
  2835                           
  2836  000AD2                     l1211:
  2837                           opt subtitle "HI-TECH Software Omniscient Code Generator (Lite mode) build 49521"
  2838  000AD2  0E00               	movlw	high(0)
  2839  000AD4  6E29               	movwf	((c:_state+1)),c
  2840  000AD6  0E00               	movlw	low(0)
  2841  000AD8  6E28               	movwf	((c:_state)),c
  2842                           opt subtitle "HI-TECH Software Omniscient Code Generator (Lite mode) build 49521"
  2843                           
  2844  000ADA  D5ED               	goto	l1107
  2845                           opt subtitle "HI-TECH Software Omniscient Code Generator (Lite mode) build 49521"
  2846                           
  2847                           opt pagewidth 120
  2848  000ADC                     l212:
  2849                           opt subtitle "HI-TECH Software Omniscient Code Generator (Lite mode) build 49521"
  2850                           
  2851  000ADC                     l1213:
  2852                           opt subtitle "HI-TECH Software Omniscient Code Generator (Lite mode) build 49521"
  2853  000ADC  6E1A               	movwf	(??_main+0+0)&0ffh,c
  2854  000ADE  0E04               	movlw	low(04h)
  2855  000AE0  6E14               	movwf	((c:?_set_address_line2)),c
  2856  000AE2  501A               	movf	(??_main+0+0)&0ffh,c,w
  2857  000AE4  EC03  F008         	call	_set_address_line2	;wreg free
  2858                           opt subtitle "HI-TECH Software Omniscient Code Generator (Lite mode) build 49521"
  2859                           
  2860  000AE8  6E1A               	movwf	(??_main+0+0)&0ffh,c
  2861  000AEA  0E46               	movlw	low(046h)
  2862  000AEC  6E17               	movwf	((c:?_write_data)),c
  2863  000AEE  501A               	movf	(??_main+0+0)&0ffh,c,w
  2864  000AF0  EC16  F008         	call	_write_data	;wreg free
  2865                           opt subtitle "HI-TECH Software Omniscient Code Generator (Lite mode) build 49521"
  2866                           
  2867  000AF4  6E1A               	movwf	(??_main+0+0)&0ffh,c
  2868  000AF6  0E0D               	movlw	low(0Dh)
  2869  000AF8  6E14               	movwf	((c:?_set_address_line2)),c
  2870  000AFA  501A               	movf	(??_main+0+0)&0ffh,c,w
  2871  000AFC  EC03  F008         	call	_set_address_line2	;wreg free
  2872                           opt subtitle "HI-TECH Software Omniscient Code Generator (Lite mode) build 49521"
  2873                           
  2874  000B00  6E1A               	movwf	(??_main+0+0)&0ffh,c
  2875  000B02  0E20               	movlw	low(020h)
  2876  000B04  6E17               	movwf	((c:?_write_data)),c
  2877  000B06  501A               	movf	(??_main+0+0)&0ffh,c,w
  2878  000B08  EC16  F008         	call	_write_data	;wreg free
  2879                           opt subtitle "HI-TECH Software Omniscient Code Generator (Lite mode) build 49521"
  2880                           
  2881  000B0C                     l1215:
  2882                           opt subtitle "HI-TECH Software Omniscient Code Generator (Lite mode) build 49521"
  2883  000B0C  0E00               	movlw	high(0)
  2884  000B0E  6E29               	movwf	((c:_state+1)),c
  2885  000B10  0E00               	movlw	low(0)
  2886  000B12  6E28               	movwf	((c:_state)),c
  2887                           opt subtitle "HI-TECH Software Omniscient Code Generator (Lite mode) build 49521"
  2888                           
  2889  000B14  D5D0               	goto	l1107
  2890                           opt subtitle "HI-TECH Software Omniscient Code Generator (Lite mode) build 49521"
  2891                           
  2892                           opt pagewidth 120
  2893  000B16                     l213:
  2894                           opt subtitle "HI-TECH Software Omniscient Code Generator (Lite mode) build 49521"
  2895                           
  2896  000B16                     l1217:
  2897                           opt subtitle "HI-TECH Software Omniscient Code Generator (Lite mode) build 49521"
  2898  000B16  6E1A               	movwf	(??_main+0+0)&0ffh,c
  2899  000B18  0E04               	movlw	low(04h)
  2900  000B1A  6E14               	movwf	((c:?_set_address_line2)),c
  2901  000B1C  501A               	movf	(??_main+0+0)&0ffh,c,w
  2902  000B1E  EC03  F008         	call	_set_address_line2	;wreg free
  2903                           opt subtitle "HI-TECH Software Omniscient Code Generator (Lite mode) build 49521"
  2904                           
  2905  000B22  6E1A               	movwf	(??_main+0+0)&0ffh,c
  2906  000B24  0E20               	movlw	low(020h)
  2907  000B26  6E17               	movwf	((c:?_write_data)),c
  2908  000B28  501A               	movf	(??_main+0+0)&0ffh,c,w
  2909  000B2A  EC16  F008         	call	_write_data	;wreg free
  2910                           opt subtitle "HI-TECH Software Omniscient Code Generator (Lite mode) build 49521"
  2911                           
  2912  000B2E  6E1A               	movwf	(??_main+0+0)&0ffh,c
  2913  000B30  0E0D               	movlw	low(0Dh)
  2914  000B32  6E14               	movwf	((c:?_set_address_line2)),c
  2915  000B34  501A               	movf	(??_main+0+0)&0ffh,c,w
  2916  000B36  EC03  F008         	call	_set_address_line2	;wreg free
  2917                           opt subtitle "HI-TECH Software Omniscient Code Generator (Lite mode) build 49521"
  2918                           
  2919  000B3A  6E1A               	movwf	(??_main+0+0)&0ffh,c
  2920  000B3C  0E46               	movlw	low(046h)
  2921  000B3E  6E17               	movwf	((c:?_write_data)),c
  2922  000B40  501A               	movf	(??_main+0+0)&0ffh,c,w
  2923  000B42  EC16  F008         	call	_write_data	;wreg free
  2924                           opt subtitle "HI-TECH Software Omniscient Code Generator (Lite mode) build 49521"
  2925                           
  2926  000B46  6E1A               	movwf	(??_main+0+0)&0ffh,c
  2927  000B48  0E07               	movlw	low(07h)
  2928  000B4A  6E14               	movwf	((c:?_set_address_line2)),c
  2929  000B4C  501A               	movf	(??_main+0+0)&0ffh,c,w
  2930  000B4E  EC03  F008         	call	_set_address_line2	;wreg free
  2931                           opt subtitle "HI-TECH Software Omniscient Code Generator (Lite mode) build 49521"
  2932                           
  2933  000B52  6E1A               	movwf	(??_main+0+0)&0ffh,c
  2934  000B54  0E41               	movlw	low(041h)
  2935  000B56  6E17               	movwf	((c:?_write_data)),c
  2936  000B58  501A               	movf	(??_main+0+0)&0ffh,c,w
  2937  000B5A  EC16  F008         	call	_write_data	;wreg free
  2938                           opt subtitle "HI-TECH Software Omniscient Code Generator (Lite mode) build 49521"
  2939                           
  2940  000B5E  6E1A               	movwf	(??_main+0+0)&0ffh,c
  2941  000B60  0E10               	movlw	low(010h)
  2942  000B62  6E14               	movwf	((c:?_set_address_line2)),c
  2943  000B64  501A               	movf	(??_main+0+0)&0ffh,c,w
  2944  000B66  EC03  F008         	call	_set_address_line2	;wreg free
  2945                           opt subtitle "HI-TECH Software Omniscient Code Generator (Lite mode) build 49521"
  2946                           
  2947  000B6A  6E1A               	movwf	(??_main+0+0)&0ffh,c
  2948  000B6C  0E20               	movlw	low(020h)
  2949  000B6E  6E17               	movwf	((c:?_write_data)),c
  2950  000B70  501A               	movf	(??_main+0+0)&0ffh,c,w
  2951  000B72  EC16  F008         	call	_write_data	;wreg free
  2952                           opt subtitle "HI-TECH Software Omniscient Code Generator (Lite mode) build 49521"
  2953                           
  2954  000B76                     l1219:
  2955                           opt subtitle "HI-TECH Software Omniscient Code Generator (Lite mode) build 49521"
  2956  000B76  0E00               	movlw	high(0)
  2957  000B78  6E29               	movwf	((c:_state+1)),c
  2958  000B7A  0E00               	movlw	low(0)
  2959  000B7C  6E28               	movwf	((c:_state)),c
  2960                           opt subtitle "HI-TECH Software Omniscient Code Generator (Lite mode) build 49521"
  2961                           
  2962  000B7E  D59B               	goto	l1107
  2963                           opt subtitle "HI-TECH Software Omniscient Code Generator (Lite mode) build 49521"
  2964                           
  2965                           opt pagewidth 120
  2966  000B80                     l214:
  2967                           opt subtitle "HI-TECH Software Omniscient Code Generator (Lite mode) build 49521"
  2968                           
  2969  000B80                     l1221:
  2970                           opt subtitle "HI-TECH Software Omniscient Code Generator (Lite mode) build 49521"
  2971  000B80  6E1A               	movwf	(??_main+0+0)&0ffh,c
  2972  000B82  0E05               	movlw	low(05h)
  2973  000B84  6E14               	movwf	((c:?_set_address_line2)),c
  2974  000B86  501A               	movf	(??_main+0+0)&0ffh,c,w
  2975  000B88  EC03  F008         	call	_set_address_line2	;wreg free
  2976                           opt subtitle "HI-TECH Software Omniscient Code Generator (Lite mode) build 49521"
  2977                           
  2978  000B8C  6E1A               	movwf	(??_main+0+0)&0ffh,c
  2979  000B8E  0E20               	movlw	low(020h)
  2980  000B90  6E17               	movwf	((c:?_write_data)),c
  2981  000B92  501A               	movf	(??_main+0+0)&0ffh,c,w
  2982  000B94  EC16  F008         	call	_write_data	;wreg free
  2983                           opt subtitle "HI-TECH Software Omniscient Code Generator (Lite mode) build 49521"
  2984                           
  2985  000B98  6E1A               	movwf	(??_main+0+0)&0ffh,c
  2986  000B9A  0E0E               	movlw	low(0Eh)
  2987  000B9C  6E14               	movwf	((c:?_set_address_line2)),c
  2988  000B9E  501A               	movf	(??_main+0+0)&0ffh,c,w
  2989  000BA0  EC03  F008         	call	_set_address_line2	;wreg free
  2990                           opt subtitle "HI-TECH Software Omniscient Code Generator (Lite mode) build 49521"
  2991                           
  2992  000BA4  6E1A               	movwf	(??_main+0+0)&0ffh,c
  2993  000BA6  0E4C               	movlw	low(04Ch)
  2994  000BA8  6E17               	movwf	((c:?_write_data)),c
  2995  000BAA  501A               	movf	(??_main+0+0)&0ffh,c,w
  2996  000BAC  EC16  F008         	call	_write_data	;wreg free
  2997                           opt subtitle "HI-TECH Software Omniscient Code Generator (Lite mode) build 49521"
  2998                           
  2999  000BB0                     l1223:
  3000                           opt subtitle "HI-TECH Software Omniscient Code Generator (Lite mode) build 49521"
  3001  000BB0  0E00               	movlw	high(0)
  3002  000BB2  6E29               	movwf	((c:_state+1)),c
  3003  000BB4  0E00               	movlw	low(0)
  3004  000BB6  6E28               	movwf	((c:_state)),c
  3005                           opt subtitle "HI-TECH Software Omniscient Code Generator (Lite mode) build 49521"
  3006                           
  3007  000BB8  D57E               	goto	l1107
  3008                           opt subtitle "HI-TECH Software Omniscient Code Generator (Lite mode) build 49521"
  3009                           
  3010                           opt pagewidth 120
  3011  000BBA                     l215:
  3012                           opt subtitle "HI-TECH Software Omniscient Code Generator (Lite mode) build 49521"
  3013                           
  3014  000BBA                     l1225:
  3015                           opt subtitle "HI-TECH Software Omniscient Code Generator (Lite mode) build 49521"
  3016  000BBA  6E1A               	movwf	(??_main+0+0)&0ffh,c
  3017  000BBC  0E07               	movlw	low(07h)
  3018  000BBE  6E14               	movwf	((c:?_set_address_line2)),c
  3019  000BC0  501A               	movf	(??_main+0+0)&0ffh,c,w
  3020  000BC2  EC03  F008         	call	_set_address_line2	;wreg free
  3021                           opt subtitle "HI-TECH Software Omniscient Code Generator (Lite mode) build 49521"
  3022                           
  3023  000BC6  6E1A               	movwf	(??_main+0+0)&0ffh,c
  3024  000BC8  0E20               	movlw	low(020h)
  3025  000BCA  6E17               	movwf	((c:?_write_data)),c
  3026  000BCC  501A               	movf	(??_main+0+0)&0ffh,c,w
  3027  000BCE  EC16  F008         	call	_write_data	;wreg free
  3028                           opt subtitle "HI-TECH Software Omniscient Code Generator (Lite mode) build 49521"
  3029                           
  3030  000BD2  6E1A               	movwf	(??_main+0+0)&0ffh,c
  3031  000BD4  0E10               	movlw	low(010h)
  3032  000BD6  6E14               	movwf	((c:?_set_address_line2)),c
  3033  000BD8  501A               	movf	(??_main+0+0)&0ffh,c,w
  3034  000BDA  EC03  F008         	call	_set_address_line2	;wreg free
  3035                           opt subtitle "HI-TECH Software Omniscient Code Generator (Lite mode) build 49521"
  3036                           
  3037  000BDE  6E1A               	movwf	(??_main+0+0)&0ffh,c
  3038  000BE0  0E41               	movlw	low(041h)
  3039  000BE2  6E17               	movwf	((c:?_write_data)),c
  3040  000BE4  501A               	movf	(??_main+0+0)&0ffh,c,w
  3041  000BE6  EC16  F008         	call	_write_data	;wreg free
  3042                           opt subtitle "HI-TECH Software Omniscient Code Generator (Lite mode) build 49521"
  3043                           
  3044  000BEA                     l1227:
  3045                           opt subtitle "HI-TECH Software Omniscient Code Generator (Lite mode) build 49521"
  3046  000BEA  0E00               	movlw	high(0)
  3047  000BEC  6E29               	movwf	((c:_state+1)),c
  3048  000BEE  0E00               	movlw	low(0)
  3049  000BF0  6E28               	movwf	((c:_state)),c
  3050                           opt subtitle "HI-TECH Software Omniscient Code Generator (Lite mode) build 49521"
  3051                           
  3052  000BF2  D561               	goto	l1107
  3053                           opt subtitle "HI-TECH Software Omniscient Code Generator (Lite mode) build 49521"
  3054                           
  3055  000BF4                     l1229:
  3056                           opt subtitle "HI-TECH Software Omniscient Code Generator (Lite mode) build 49521"
  3057  000BF4  D560               	goto	l1107
  3058                           opt subtitle "HI-TECH Software Omniscient Code Generator (Lite mode) build 49521"
  3059                           
  3060  000BF6                     l204:
  3061                           opt subtitle "HI-TECH Software Omniscient Code Generator (Lite mode) build 49521"
  3062  000BF6                     l1231:
  3063  000BF6  C028  F01A         	movff	(c:_state),??_main+0+0
  3064  000BFA  C029  F01B         	movff	(c:_state+1),??_main+0+0+1
  3065                           opt subtitle "HI-TECH Software Omniscient Code Generator (Lite mode) build 49521"
  3066                           
  3067                           opt pagewidth 120
  3068                           
  3069                           	opt lm
  3070                           
  3071                           	processor	18F25K22
  3072                           porta	equ	0F80h
  3073  000BFE  501B               	movf ??_main+0+1,c,w
  3074  000C00  0A00               	xorlw	0^0	; case 0
  3075  000C02  B4D8               	skipnz
  3076  000C04  D001               	goto	l1443
  3077  000C06  D557               	goto	l1107
  3078                           opt subtitle "HI-TECH Software Omniscient Code Generator (Lite mode) build 49521"
  3079  000C08                     l1443:
  3080                           opt subtitle "HI-TECH Software Omniscient Code Generator (Lite mode) build 49521"
  3081                           
  3082                           opt pagewidth 120
  3083                           
  3084                           	opt lm
  3085                           
  3086                           	processor	18F25K22
  3087  000C08  501A               	movf ??_main+0+0,c,w
  3088  000C0A  0A00               	xorlw	0^0	; case 0
  3089  000C0C  B4D8               	skipnz
  3090  000C0E  D668               	goto	l1191
  3091  000C10  0A01               	xorlw	1^0	; case 1
  3092  000C12  B4D8               	skipnz
  3093  000C14  D6D2               	goto	l1193
  3094  000C16  0A03               	xorlw	2^1	; case 2
  3095  000C18  B4D8               	skipnz
  3096  000C1A  D6EC               	goto	l1197
  3097  000C1C  0A01               	xorlw	3^2	; case 3
  3098  000C1E  B4D8               	skipnz
  3099  000C20  D706               	goto	l1201
  3100  000C22  0A07               	xorlw	4^3	; case 4
  3101  000C24  B4D8               	skipnz
  3102  000C26  D720               	goto	l1205
  3103  000C28  0A01               	xorlw	5^4	; case 5
  3104  000C2A  B4D8               	skipnz
  3105  000C2C  D73A               	goto	l1209
  3106  000C2E  0A03               	xorlw	6^5	; case 6
  3107  000C30  B4D8               	skipnz
  3108  000C32  D754               	goto	l1213
  3109  000C34  0A01               	xorlw	7^6	; case 7
  3110  000C36  B4D8               	skipnz
  3111  000C38  D76E               	goto	l1217
  3112  000C3A  0A0F               	xorlw	8^7	; case 8
  3113  000C3C  B4D8               	skipnz
  3114  000C3E  D7A0               	goto	l1221
  3115  000C40  0A01               	xorlw	9^8	; case 9
  3116  000C42  B4D8               	skipnz
  3117  000C44  D7BA               	goto	l1225
  3118  000C46  D537               	goto	l1107
  3119                           opt subtitle "HI-TECH Software Omniscient Code Generator (Lite mode) build 49521"
  3120                           
  3121                           opt pagewidth 120
  3122  000C48                     l206:
  3123  000C48  D536               	goto	l1107
  3124                           opt subtitle "HI-TECH Software Omniscient Code Generator (Lite mode) build 49521"
  3125                           
  3126  000C4A                     l216:
  3127                           opt subtitle "HI-TECH Software Omniscient Code Generator (Lite mode) build 49521"
  3128  000C4A  D535               	goto	l1107
  3129                           opt subtitle "HI-TECH Software Omniscient Code Generator (Lite mode) build 49521"
  3130  000C4C                     l217:
  3131                           opt subtitle "HI-TECH Software Omniscient Code Generator (Lite mode) build 49521"
  3132                           
  3133  000C4C                     l218:
  3134                           opt subtitle "HI-TECH Software Omniscient Code Generator (Lite mode) build 49521"
  3135  000C4C  EF17  F001         	goto	start
  3136                           opt subtitle "HI-TECH Software Omniscient Code Generator (Lite mode) build 49521"
  3137                           
  3138  000C50                     	__end_of_main:
  3139                           opt subtitle "HI-TECH Software Omniscient Code Generator (Lite mode) build 49521"
  3140                           
  3141                           opt pagewidth 120
  3142                           
  3143                           	opt lm
  3144                           
  3145                           	processor	18F25K22
  3146                           porta	equ	0F80h
  3147                           portb	equ	0F81h
  3148                           portc	equ	0F82h
  3149                           portd	equ	0F83h
  3150                           porte	equ	0F84h
  3151                           lata	equ	0F89h
  3152                           latb	equ	0F8Ah
  3153                           latc	equ	0F8Bh
  3154                           latd	equ	0F8Ch
  3155                           late	equ	0F8Dh
  3156                           trisa	equ	0F92h
  3157                           trisb	equ	0F93h
  3158                           trisc	equ	0F94h
  3159                           trisd	equ	0F95h
  3160                           trise	equ	0F96h
  3161                           pie1	equ	0F9Dh
  3162                           pir1	equ	0F9Eh
  3163                           ipr1	equ	0F9Fh
  3164                           pie2	equ	0FA0h
  3165                           pir2	equ	0FA1h
  3166                           ipr2	equ	0FA2h
  3167                           t3con	equ	0FB1h
  3168                           tmr3l	equ	0FB2h
  3169                           tmr3h	equ	0FB3h
  3170                           ccp1con	equ	0FBDh
  3171                           ccpr1l	equ	0FBEh
  3172                           ccpr1h	equ	0FBFh
  3173  000FDC                     __ptext1:
  3174                           opt subtitle "HI-TECH Software Omniscient Code Generator (Lite mode) build 49521"
  3175                           
  3176                           opt pagewidth 120
  3177                           
  3178  0000                     	__size_of_init_com	equ	__end_of_init_com-_init_com
  3179                           opt subtitle "HI-TECH Software Omniscient Code Generator (Lite mode) build 49521"
  3180  000FDC                     _init_com:
  3181                           opt subtitle "HI-TECH Software Omniscient Code Generator (Lite mode) build 49521"
  3182                           
  3183                           opt pagewidth 120
  3184  000FDC                     l1051:
  3185                           opt subtitle "HI-TECH Software Omniscient Code Generator (Lite mode) build 49521"
  3186  000FDC  98AC               	bcf	c:(32100/8),(32100)&7	;volatile
  3187                           opt subtitle "HI-TECH Software Omniscient Code Generator (Lite mode) build 49521"
  3188                           
  3189  000FDE  8EAB               	bsf	c:(32095/8),(32095)&7	;volatile
  3190                           opt subtitle "HI-TECH Software Omniscient Code Generator (Lite mode) build 49521"
  3191                           
  3192  000FE0  88AB               	bsf	c:(32092/8),(32092)&7	;volatile
  3193                           opt subtitle "HI-TECH Software Omniscient Code Generator (Lite mode) build 49521"
  3194                           
  3195  000FE2                     l1053:
  3196                           opt subtitle "HI-TECH Software Omniscient Code Generator (Lite mode) build 49521"
  3197  000FE2  0E33               	movlw	low(033h)
  3198  000FE4  6EAF               	movwf	((c:4015)),c	;volatile
  3199                           opt subtitle "HI-TECH Software Omniscient Code Generator (Lite mode) build 49521"
  3200                           
  3201  000FE6                     l1055:
  3202                           opt subtitle "HI-TECH Software Omniscient Code Generator (Lite mode) build 49521"
  3203  000FE6  84AC               	bsf	c:(32098/8),(32098)&7	;volatile
  3204                           opt subtitle "HI-TECH Software Omniscient Code Generator (Lite mode) build 49521"
  3205                           
  3206  000FE8                     l1057:
  3207                           opt subtitle "HI-TECH Software Omniscient Code Generator (Lite mode) build 49521"
  3208  000FE8  8A9D               	bsf	c:(31981/8),(31981)&7	;volatile
  3209                           opt subtitle "HI-TECH Software Omniscient Code Generator (Lite mode) build 49521"
  3210                           
  3211  000FEA                     l1059:
  3212                           opt subtitle "HI-TECH Software Omniscient Code Generator (Lite mode) build 49521"
  3213  000FEA  9A9E               	bcf	c:(31989/8),(31989)&7	;volatile
  3214                           opt subtitle "HI-TECH Software Omniscient Code Generator (Lite mode) build 49521"
  3215                           
  3216  000FEC                     l1061:
  3217                           opt subtitle "HI-TECH Software Omniscient Code Generator (Lite mode) build 49521"
  3218  000FEC  8CF2               	bsf	c:(32662/8),(32662)&7	;volatile
  3219                           opt subtitle "HI-TECH Software Omniscient Code Generator (Lite mode) build 49521"
  3220                           
  3221  000FEE                     l1063:
  3222                           opt subtitle "HI-TECH Software Omniscient Code Generator (Lite mode) build 49521"
  3223  000FEE  8EF2               	bsf	c:(32663/8),(32663)&7	;volatile
  3224                           opt subtitle "HI-TECH Software Omniscient Code Generator (Lite mode) build 49521"
  3225                           
  3226  000FF0                     l179:
  3227  000FF0  0012               	return
  3228                           opt subtitle "HI-TECH Software Omniscient Code Generator (Lite mode) build 49521"
  3229                           
  3230  000FF2                     	__end_of_init_com:
  3231                           opt subtitle "HI-TECH Software Omniscient Code Generator (Lite mode) build 49521"
  3232                           
  3233                           opt pagewidth 120
  3234                           
  3235                           	opt lm
  3236                           
  3237                           	processor	18F25K22
  3238                           porta	equ	0F80h
  3239                           portb	equ	0F81h
  3240                           portc	equ	0F82h
  3241                           portd	equ	0F83h
  3242                           porte	equ	0F84h
  3243                           lata	equ	0F89h
  3244                           latb	equ	0F8Ah
  3245                           latc	equ	0F8Bh
  3246                           latd	equ	0F8Ch
  3247                           late	equ	0F8Dh
  3248                           trisa	equ	0F92h
  3249                           trisb	equ	0F93h
  3250                           trisc	equ	0F94h
  3251                           trisd	equ	0F95h
  3252                           trise	equ	0F96h
  3253                           pie1	equ	0F9Dh
  3254                           pir1	equ	0F9Eh
  3255                           ipr1	equ	0F9Fh
  3256                           pie2	equ	0FA0h
  3257                           pir2	equ	0FA1h
  3258                           ipr2	equ	0FA2h
  3259                           t3con	equ	0FB1h
  3260                           tmr3l	equ	0FB2h
  3261                           tmr3h	equ	0FB3h
  3262                           ccp1con	equ	0FBDh
  3263                           ccpr1l	equ	0FBEh
  3264                           ccpr1h	equ	0FBFh
  3265  000FA0                     __ptext2:
  3266                           opt subtitle "HI-TECH Software Omniscient Code Generator (Lite mode) build 49521"
  3267                           
  3268                           opt pagewidth 120
  3269                           
  3270  0000                     	__size_of_init_timer0	equ	__end_of_init_timer0-_init_timer0
  3271                           opt subtitle "HI-TECH Software Omniscient Code Generator (Lite mode) build 49521"
  3272  000FA0                     _init_timer0:
  3273                           opt subtitle "HI-TECH Software Omniscient Code Generator (Lite mode) build 49521"
  3274                           
  3275                           opt pagewidth 120
  3276  000FA0                     l1065:
  3277                           opt subtitle "HI-TECH Software Omniscient Code Generator (Lite mode) build 49521"
  3278  000FA0  80D5               	bsf	c:(32424/8),(32424)&7	;volatile
  3279                           opt subtitle "HI-TECH Software Omniscient Code Generator (Lite mode) build 49521"
  3280                           
  3281  000FA2  82D5               	bsf	c:(32425/8),(32425)&7	;volatile
  3282                           opt subtitle "HI-TECH Software Omniscient Code Generator (Lite mode) build 49521"
  3283                           
  3284  000FA4  94D5               	bcf	c:(32426/8),(32426)&7	;volatile
  3285                           opt subtitle "HI-TECH Software Omniscient Code Generator (Lite mode) build 49521"
  3286                           
  3287  000FA6  96D5               	bcf	c:(32427/8),(32427)&7	;volatile
  3288                           opt subtitle "HI-TECH Software Omniscient Code Generator (Lite mode) build 49521"
  3289                           
  3290  000FA8  9AD5               	bcf	c:(32429/8),(32429)&7	;volatile
  3291                           opt subtitle "HI-TECH Software Omniscient Code Generator (Lite mode) build 49521"
  3292                           
  3293  000FAA  8CD5               	bsf	c:(32430/8),(32430)&7	;volatile
  3294                           opt subtitle "HI-TECH Software Omniscient Code Generator (Lite mode) build 49521"
  3295                           
  3296  000FAC  9ED5               	bcf	c:(32431/8),(32431)&7	;volatile
  3297                           opt subtitle "HI-TECH Software Omniscient Code Generator (Lite mode) build 49521"
  3298                           
  3299  000FAE  8AF2               	bsf	c:(32661/8),(32661)&7	;volatile
  3300                           opt subtitle "HI-TECH Software Omniscient Code Generator (Lite mode) build 49521"
  3301                           
  3302  000FB0  94F2               	bcf	c:(32658/8),(32658)&7	;volatile
  3303                           opt subtitle "HI-TECH Software Omniscient Code Generator (Lite mode) build 49521"
  3304                           
  3305  000FB2  8EF2               	bsf	c:(32663/8),(32663)&7	;volatile
  3306                           opt subtitle "HI-TECH Software Omniscient Code Generator (Lite mode) build 49521"
  3307                           
  3308  000FB4                     l1067:
  3309                           opt subtitle "HI-TECH Software Omniscient Code Generator (Lite mode) build 49521"
  3310  000FB4  0E00               	movlw	low(0)
  3311  000FB6  6ED7               	movwf	((c:4055)),c	;volatile
  3312                           opt subtitle "HI-TECH Software Omniscient Code Generator (Lite mode) build 49521"
  3313                           
  3314  000FB8  0E00               	movlw	low(0)
  3315  000FBA  6ED6               	movwf	((c:4054)),c	;volatile
  3316                           opt subtitle "HI-TECH Software Omniscient Code Generator (Lite mode) build 49521"
  3317                           
  3318  000FBC                     l182:
  3319  000FBC  0012               	return
  3320                           opt subtitle "HI-TECH Software Omniscient Code Generator (Lite mode) build 49521"
  3321                           
  3322  000FBE                     	__end_of_init_timer0:
  3323                           opt subtitle "HI-TECH Software Omniscient Code Generator (Lite mode) build 49521"
  3324                           
  3325                           opt pagewidth 120
  3326                           
  3327                           	opt lm
  3328                           
  3329                           	processor	18F25K22
  3330                           porta	equ	0F80h
  3331                           portb	equ	0F81h
  3332                           portc	equ	0F82h
  3333                           portd	equ	0F83h
  3334                           porte	equ	0F84h
  3335                           lata	equ	0F89h
  3336                           latb	equ	0F8Ah
  3337                           latc	equ	0F8Bh
  3338                           latd	equ	0F8Ch
  3339                           late	equ	0F8Dh
  3340                           trisa	equ	0F92h
  3341                           trisb	equ	0F93h
  3342                           trisc	equ	0F94h
  3343                           trisd	equ	0F95h
  3344                           trise	equ	0F96h
  3345                           pie1	equ	0F9Dh
  3346                           pir1	equ	0F9Eh
  3347                           ipr1	equ	0F9Fh
  3348                           pie2	equ	0FA0h
  3349                           pir2	equ	0FA1h
  3350                           ipr2	equ	0FA2h
  3351                           t3con	equ	0FB1h
  3352                           tmr3l	equ	0FB2h
  3353                           tmr3h	equ	0FB3h
  3354                           ccp1con	equ	0FBDh
  3355                           ccpr1l	equ	0FBEh
  3356                           ccpr1h	equ	0FBFh
  3357  000F7E                     __ptext3:
  3358                           opt subtitle "HI-TECH Software Omniscient Code Generator (Lite mode) build 49521"
  3359                           
  3360                           opt pagewidth 120
  3361                           
  3362  0000                     	__size_of_init_timer1	equ	__end_of_init_timer1-_init_timer1
  3363                           opt subtitle "HI-TECH Software Omniscient Code Generator (Lite mode) build 49521"
  3364  000F7E                     _init_timer1:
  3365                           opt subtitle "HI-TECH Software Omniscient Code Generator (Lite mode) build 49521"
  3366                           
  3367                           opt pagewidth 120
  3368  000F7E                     l1069:
  3369                           opt subtitle "HI-TECH Software Omniscient Code Generator (Lite mode) build 49521"
  3370  000F7E  9ECD               	bcf	c:(32367/8),(32367)&7	;volatile
  3371                           opt subtitle "HI-TECH Software Omniscient Code Generator (Lite mode) build 49521"
  3372                           
  3373  000F80  9CCD               	bcf	c:(32366/8),(32366)&7	;volatile
  3374                           opt subtitle "HI-TECH Software Omniscient Code Generator (Lite mode) build 49521"
  3375                           
  3376  000F82  98CD               	bcf	c:(32364/8),(32364)&7	;volatile
  3377                           opt subtitle "HI-TECH Software Omniscient Code Generator (Lite mode) build 49521"
  3378                           
  3379  000F84  9ACD               	bcf	c:(32365/8),(32365)&7	;volatile
  3380                           opt subtitle "HI-TECH Software Omniscient Code Generator (Lite mode) build 49521"
  3381                           
  3382  000F86  96CD               	bcf	c:(32363/8),(32363)&7	;volatile
  3383                           opt subtitle "HI-TECH Software Omniscient Code Generator (Lite mode) build 49521"
  3384                           
  3385  000F88  94CD               	bcf	c:(32362/8),(32362)&7	;volatile
  3386                           opt subtitle "HI-TECH Software Omniscient Code Generator (Lite mode) build 49521"
  3387                           
  3388  000F8A  92CD               	bcf	c:(32361/8),(32361)&7	;volatile
  3389                           opt subtitle "HI-TECH Software Omniscient Code Generator (Lite mode) build 49521"
  3390                           
  3391  000F8C  909E               	bcf	c:(31984/8),(31984)&7	;volatile
  3392                           opt subtitle "HI-TECH Software Omniscient Code Generator (Lite mode) build 49521"
  3393                           
  3394  000F8E  80CD               	bsf	c:(32360/8),(32360)&7	;volatile
  3395                           opt subtitle "HI-TECH Software Omniscient Code Generator (Lite mode) build 49521"
  3396                           
  3397  000F90  809D               	bsf	c:(31976/8),(31976)&7	;volatile
  3398                           opt subtitle "HI-TECH Software Omniscient Code Generator (Lite mode) build 49521"
  3399                           
  3400  000F92  8CF2               	bsf	c:(32662/8),(32662)&7	;volatile
  3401                           opt subtitle "HI-TECH Software Omniscient Code Generator (Lite mode) build 49521"
  3402                           
  3403  000F94  8EF2               	bsf	c:(32663/8),(32663)&7	;volatile
  3404                           opt subtitle "HI-TECH Software Omniscient Code Generator (Lite mode) build 49521"
  3405                           
  3406  000F96                     l1071:
  3407                           opt subtitle "HI-TECH Software Omniscient Code Generator (Lite mode) build 49521"
  3408  000F96  0E00               	movlw	low(0)
  3409  000F98  6ECE               	movwf	((c:4046)),c	;volatile
  3410                           opt subtitle "HI-TECH Software Omniscient Code Generator (Lite mode) build 49521"
  3411                           
  3412  000F9A  0E00               	movlw	low(0)
  3413  000F9C  6ECF               	movwf	((c:4047)),c	;volatile
  3414                           opt subtitle "HI-TECH Software Omniscient Code Generator (Lite mode) build 49521"
  3415                           
  3416  000F9E                     l185:
  3417  000F9E  0012               	return
  3418                           opt subtitle "HI-TECH Software Omniscient Code Generator (Lite mode) build 49521"
  3419                           
  3420  000FA0                     	__end_of_init_timer1:
  3421                           opt subtitle "HI-TECH Software Omniscient Code Generator (Lite mode) build 49521"
  3422                           
  3423                           opt pagewidth 120
  3424                           
  3425                           	opt lm
  3426                           
  3427                           	processor	18F25K22
  3428                           porta	equ	0F80h
  3429                           portb	equ	0F81h
  3430                           portc	equ	0F82h
  3431                           portd	equ	0F83h
  3432                           porte	equ	0F84h
  3433                           lata	equ	0F89h
  3434                           latb	equ	0F8Ah
  3435                           latc	equ	0F8Bh
  3436                           latd	equ	0F8Ch
  3437                           late	equ	0F8Dh
  3438                           trisa	equ	0F92h
  3439                           trisb	equ	0F93h
  3440                           trisc	equ	0F94h
  3441                           trisd	equ	0F95h
  3442                           trise	equ	0F96h
  3443                           pie1	equ	0F9Dh
  3444                           pir1	equ	0F9Eh
  3445                           ipr1	equ	0F9Fh
  3446                           pie2	equ	0FA0h
  3447                           pir2	equ	0FA1h
  3448                           ipr2	equ	0FA2h
  3449                           t3con	equ	0FB1h
  3450                           tmr3l	equ	0FB2h
  3451                           tmr3h	equ	0FB3h
  3452                           ccp1con	equ	0FBDh
  3453                           ccpr1l	equ	0FBEh
  3454                           ccpr1h	equ	0FBFh
  3455  000F56                     __ptext4:
  3456                           opt subtitle "HI-TECH Software Omniscient Code Generator (Lite mode) build 49521"
  3457                           
  3458                           opt pagewidth 120
  3459                           
  3460  0000                     	__size_of_init_pwm	equ	__end_of_init_pwm-_init_pwm
  3461                           opt subtitle "HI-TECH Software Omniscient Code Generator (Lite mode) build 49521"
  3462  000F56                     _init_pwm:
  3463                           opt subtitle "HI-TECH Software Omniscient Code Generator (Lite mode) build 49521"
  3464                           
  3465                           opt pagewidth 120
  3466  000F56                     l1073:
  3467                           opt subtitle "HI-TECH Software Omniscient Code Generator (Lite mode) build 49521"
  3468  000F56  0E3E               	movlw	low(03Eh)
  3469  000F58  6EBB               	movwf	((c:4027)),c	;volatile
  3470                           opt subtitle "HI-TECH Software Omniscient Code Generator (Lite mode) build 49521"
  3471                           
  3472  000F5A  0E02               	movlw	low(02h)
  3473  000F5C  6EBA               	movwf	((c:4026)),c	;volatile
  3474                           opt subtitle "HI-TECH Software Omniscient Code Generator (Lite mode) build 49521"
  3475                           
  3476  000F5E  0E0C               	movlw	low(0Ch)
  3477  000F60  6EBD               	movwf	((c:4029)),c	;volatile
  3478                           opt subtitle "HI-TECH Software Omniscient Code Generator (Lite mode) build 49521"
  3479                           
  3480  000F62                     l1075:
  3481                           opt subtitle "HI-TECH Software Omniscient Code Generator (Lite mode) build 49521"
  3482  000F62  CFBB F00F          	movff	(c:4027),(c:?___awdiv)	;volatile
  3483  000F66  6A10               	clrf	((c:?___awdiv+1)),c
  3484  000F68  0E00               	movlw	high(02h)
  3485  000F6A  6E12               	movwf	(1+((c:?___awdiv)+02h)),c
  3486  000F6C  0E02               	movlw	low(02h)
  3487  000F6E  6E11               	movwf	(0+((c:?___awdiv)+02h)),c
  3488  000F70  EC88  F006         	call	___awdiv	;wreg free
  3489  000F74  500F               	movf	(0+?___awdiv),c,w
  3490  000F76  6EBE               	movwf	((c:4030)),c	;volatile
  3491                           opt subtitle "HI-TECH Software Omniscient Code Generator (Lite mode) build 49521"
  3492                           
  3493  000F78                     l1077:
  3494                           opt subtitle "HI-TECH Software Omniscient Code Generator (Lite mode) build 49521"
  3495  000F78  0E00               	movlw	low(0)
  3496  000F7A  6EBC               	movwf	((c:4028)),c	;volatile
  3497                           opt subtitle "HI-TECH Software Omniscient Code Generator (Lite mode) build 49521"
  3498                           
  3499  000F7C                     l188:
  3500  000F7C  0012               	return
  3501                           opt subtitle "HI-TECH Software Omniscient Code Generator (Lite mode) build 49521"
  3502                           
  3503  000F7E                     	__end_of_init_pwm:
  3504                           opt subtitle "HI-TECH Software Omniscient Code Generator (Lite mode) build 49521"
  3505                           
  3506                           opt pagewidth 120
  3507                           
  3508                           	opt lm
  3509                           
  3510                           	processor	18F25K22
  3511                           porta	equ	0F80h
  3512                           portb	equ	0F81h
  3513                           portc	equ	0F82h
  3514                           portd	equ	0F83h
  3515                           porte	equ	0F84h
  3516                           lata	equ	0F89h
  3517                           latb	equ	0F8Ah
  3518                           latc	equ	0F8Bh
  3519                           latd	equ	0F8Ch
  3520                           late	equ	0F8Dh
  3521                           trisa	equ	0F92h
  3522                           trisb	equ	0F93h
  3523                           trisc	equ	0F94h
  3524                           trisd	equ	0F95h
  3525                           trise	equ	0F96h
  3526                           pie1	equ	0F9Dh
  3527                           pir1	equ	0F9Eh
  3528                           ipr1	equ	0F9Fh
  3529                           pie2	equ	0FA0h
  3530                           pir2	equ	0FA1h
  3531                           ipr2	equ	0FA2h
  3532                           t3con	equ	0FB1h
  3533                           tmr3l	equ	0FB2h
  3534                           tmr3h	equ	0FB3h
  3535                           ccp1con	equ	0FBDh
  3536                           ccpr1l	equ	0FBEh
  3537                           ccpr1h	equ	0FBFh
  3538                           adcon1	equ	0FC1h
  3539  000C50                     __ptext5:
  3540                           opt subtitle "HI-TECH Software Omniscient Code Generator (Lite mode) build 49521"
  3541                           
  3542                           opt pagewidth 120
  3543                           
  3544  0000                     	__size_of_init_display	equ	__end_of_init_display-_init_display
  3545                           opt subtitle "HI-TECH Software Omniscient Code Generator (Lite mode) build 49521"
  3546  000C50                     _init_display:
  3547                           opt subtitle "HI-TECH Software Omniscient Code Generator (Lite mode) build 49521"
  3548                           
  3549                           opt pagewidth 120
  3550  000C50                     l1237:
  3551                           opt subtitle "HI-TECH Software Omniscient Code Generator (Lite mode) build 49521"
  3552  000C50  0E01               	movlw	low(01h)
  3553  000C52  6E93               	movwf	((c:3987)),c	;volatile
  3554                           opt subtitle "HI-TECH Software Omniscient Code Generator (Lite mode) build 49521"
  3555                           
  3556  000C54  0E00               	movlw	low(0)
  3557  000C56  6E81               	movwf	((c:3969)),c	;volatile
  3558                           opt subtitle "HI-TECH Software Omniscient Code Generator (Lite mode) build 49521"
  3559                           
  3560  000C58                     l1239:
  3561                           opt subtitle "HI-TECH Software Omniscient Code Generator (Lite mode) build 49521"
  3562  000C58  0E1A               	movlw	26
  3563  000C5A  6E12               movwf	(??_init_display+0+0)&0ffh,c,f
  3564  000C5C  0EF8               	movlw	248
  3565  000C5E                     u637:
  3566  000C5E  2EE8               	decfsz	wreg,f
  3567  000C60  D7FE               	goto	u637
  3568  000C62  2E12               	decfsz	(??_init_display+0+0)&0ffh,c,f
  3569  000C64  D7FC               	goto	u637
  3570  000C66  F000               	nop
  3571                           opt subtitle "HI-TECH Software Omniscient Code Generator (Lite mode) build 49521"
  3572                           
  3573                           opt pagewidth 120
  3574  000C68                     l1241:
  3575                           opt subtitle "HI-TECH Software Omniscient Code Generator (Lite mode) build 49521"
  3576  000C68  6E12               	movwf	(??_init_display+0+0)&0ffh,c
  3577  000C6A  0E30               	movlw	low(030h)
  3578  000C6C  6E0F               	movwf	((c:?_write_8bit_data)),c
  3579  000C6E  5012               	movf	(??_init_display+0+0)&0ffh,c,w
  3580  000C70  EC0D  F008         	call	_write_8bit_data	;wreg free
  3581                           opt subtitle "HI-TECH Software Omniscient Code Generator (Lite mode) build 49521"
  3582                           
  3583  000C74                     l1243:
  3584                           opt subtitle "HI-TECH Software Omniscient Code Generator (Lite mode) build 49521"
  3585  000C74  0E08               	movlw	8
  3586  000C76  6E12               movwf	(??_init_display+0+0)&0ffh,c,f
  3587  000C78  0EC9               	movlw	201
  3588  000C7A                     u647:
  3589  000C7A  2EE8               	decfsz	wreg,f
  3590  000C7C  D7FE               	goto	u647
  3591  000C7E  2E12               	decfsz	(??_init_display+0+0)&0ffh,c,f
  3592  000C80  D7FC               	goto	u647
  3593  000C82  D000               	nop2
  3594                           opt subtitle "HI-TECH Software Omniscient Code Generator (Lite mode) build 49521"
  3595                           
  3596                           opt pagewidth 120
  3597  000C84                     l1245:
  3598                           opt subtitle "HI-TECH Software Omniscient Code Generator (Lite mode) build 49521"
  3599  000C84  6E12               	movwf	(??_init_display+0+0)&0ffh,c
  3600  000C86  0E30               	movlw	low(030h)
  3601  000C88  6E0F               	movwf	((c:?_write_8bit_data)),c
  3602  000C8A  5012               	movf	(??_init_display+0+0)&0ffh,c,w
  3603  000C8C  EC0D  F008         	call	_write_8bit_data	;wreg free
  3604                           opt subtitle "HI-TECH Software Omniscient Code Generator (Lite mode) build 49521"
  3605                           
  3606  000C90                     l1247:
  3607                           opt subtitle "HI-TECH Software Omniscient Code Generator (Lite mode) build 49521"
  3608  000C90  0EFA               	movlw	250
  3609  000C92                     u657:
  3610  000C92  F000               	nop
  3611  000C94  2EE8               decfsz	wreg,f
  3612  000C96  D7FD               	goto	u657
  3613                           opt subtitle "HI-TECH Software Omniscient Code Generator (Lite mode) build 49521"
  3614                           
  3615                           opt pagewidth 120
  3616  000C98                     l1249:
  3617                           opt subtitle "HI-TECH Software Omniscient Code Generator (Lite mode) build 49521"
  3618  000C98  6E12               	movwf	(??_init_display+0+0)&0ffh,c
  3619  000C9A  0E30               	movlw	low(030h)
  3620  000C9C  6E0F               	movwf	((c:?_write_8bit_data)),c
  3621  000C9E  5012               	movf	(??_init_display+0+0)&0ffh,c,w
  3622  000CA0  EC0D  F008         	call	_write_8bit_data	;wreg free
  3623                           opt subtitle "HI-TECH Software Omniscient Code Generator (Lite mode) build 49521"
  3624                           
  3625  000CA4                     l1251:
  3626                           opt subtitle "HI-TECH Software Omniscient Code Generator (Lite mode) build 49521"
  3627  000CA4  0EFA               	movlw	250
  3628  000CA6                     u667:
  3629  000CA6  F000               	nop
  3630  000CA8  2EE8               decfsz	wreg,f
  3631  000CAA  D7FD               	goto	u667
  3632                           opt subtitle "HI-TECH Software Omniscient Code Generator (Lite mode) build 49521"
  3633                           
  3634                           opt pagewidth 120
  3635  000CAC                     l1253:
  3636                           opt subtitle "HI-TECH Software Omniscient Code Generator (Lite mode) build 49521"
  3637  000CAC  6E12               	movwf	(??_init_display+0+0)&0ffh,c
  3638  000CAE  0E20               	movlw	low(020h)
  3639  000CB0  6E0F               	movwf	((c:?_write_8bit_data)),c
  3640  000CB2  5012               	movf	(??_init_display+0+0)&0ffh,c,w
  3641  000CB4  EC0D  F008         	call	_write_8bit_data	;wreg free
  3642                           opt subtitle "HI-TECH Software Omniscient Code Generator (Lite mode) build 49521"
  3643                           
  3644  000CB8                     l1255:
  3645                           opt subtitle "HI-TECH Software Omniscient Code Generator (Lite mode) build 49521"
  3646  000CB8  0EFA               	movlw	250
  3647  000CBA                     u677:
  3648  000CBA  F000               	nop
  3649  000CBC  2EE8               decfsz	wreg,f
  3650  000CBE  D7FD               	goto	u677
  3651                           opt subtitle "HI-TECH Software Omniscient Code Generator (Lite mode) build 49521"
  3652                           
  3653                           opt pagewidth 120
  3654  000CC0                     l1257:
  3655                           opt subtitle "HI-TECH Software Omniscient Code Generator (Lite mode) build 49521"
  3656  000CC0  6E12               	movwf	(??_init_display+0+0)&0ffh,c
  3657  000CC2  0E28               	movlw	low(028h)
  3658  000CC4  6E0F               	movwf	((c:?_write_4bit_data)),c
  3659  000CC6  5012               	movf	(??_init_display+0+0)&0ffh,c,w
  3660  000CC8  EC4A  F007         	call	_write_4bit_data	;wreg free
  3661                           opt subtitle "HI-TECH Software Omniscient Code Generator (Lite mode) build 49521"
  3662                           
  3663  000CCC                     l1259:
  3664                           opt subtitle "HI-TECH Software Omniscient Code Generator (Lite mode) build 49521"
  3665  000CCC  6E12               	movwf	(??_init_display+0+0)&0ffh,c
  3666  000CCE  0E08               	movlw	low(08h)
  3667  000CD0  6E0F               	movwf	((c:?_write_4bit_data)),c
  3668  000CD2  5012               	movf	(??_init_display+0+0)&0ffh,c,w
  3669  000CD4  EC4A  F007         	call	_write_4bit_data	;wreg free
  3670                           opt subtitle "HI-TECH Software Omniscient Code Generator (Lite mode) build 49521"
  3671                           
  3672  000CD8                     l1261:
  3673                           opt subtitle "HI-TECH Software Omniscient Code Generator (Lite mode) build 49521"
  3674  000CD8  6E12               	movwf	(??_init_display+0+0)&0ffh,c
  3675  000CDA  0E01               	movlw	low(01h)
  3676  000CDC  6E0F               	movwf	((c:?_write_4bit_data)),c
  3677  000CDE  5012               	movf	(??_init_display+0+0)&0ffh,c,w
  3678  000CE0  EC4A  F007         	call	_write_4bit_data	;wreg free
  3679                           opt subtitle "HI-TECH Software Omniscient Code Generator (Lite mode) build 49521"
  3680                           
  3681  000CE4                     l1263:
  3682                           opt subtitle "HI-TECH Software Omniscient Code Generator (Lite mode) build 49521"
  3683  000CE4  0E03               	movlw	3
  3684  000CE6  6E12               movwf	(??_init_display+0+0)&0ffh,c,f
  3685  000CE8  0E97               	movlw	151
  3686  000CEA                     u687:
  3687  000CEA  2EE8               	decfsz	wreg,f
  3688  000CEC  D7FE               	goto	u687
  3689  000CEE  2E12               	decfsz	(??_init_display+0+0)&0ffh,c,f
  3690  000CF0  D7FC               	goto	u687
  3691  000CF2  D000               	nop2
  3692                           opt subtitle "HI-TECH Software Omniscient Code Generator (Lite mode) build 49521"
  3693                           
  3694                           opt pagewidth 120
  3695  000CF4                     l1265:
  3696                           opt subtitle "HI-TECH Software Omniscient Code Generator (Lite mode) build 49521"
  3697  000CF4  6E12               	movwf	(??_init_display+0+0)&0ffh,c
  3698  000CF6  0E06               	movlw	low(06h)
  3699  000CF8  6E0F               	movwf	((c:?_write_4bit_data)),c
  3700  000CFA  5012               	movf	(??_init_display+0+0)&0ffh,c,w
  3701  000CFC  EC4A  F007         	call	_write_4bit_data	;wreg free
  3702                           opt subtitle "HI-TECH Software Omniscient Code Generator (Lite mode) build 49521"
  3703                           
  3704  000D00                     l1267:
  3705                           opt subtitle "HI-TECH Software Omniscient Code Generator (Lite mode) build 49521"
  3706  000D00  6E12               	movwf	(??_init_display+0+0)&0ffh,c
  3707  000D02  0E0C               	movlw	low(0Ch)
  3708  000D04  6E0F               	movwf	((c:?_write_4bit_data)),c
  3709  000D06  5012               	movf	(??_init_display+0+0)&0ffh,c,w
  3710  000D08  EC4A  F007         	call	_write_4bit_data	;wreg free
  3711                           opt subtitle "HI-TECH Software Omniscient Code Generator (Lite mode) build 49521"
  3712                           
  3713  000D0C                     l1269:
  3714                           opt subtitle "HI-TECH Software Omniscient Code Generator (Lite mode) build 49521"
  3715  000D0C  848A               	bsf	c:(31826/8),(31826)&7	;volatile
  3716                           opt subtitle "HI-TECH Software Omniscient Code Generator (Lite mode) build 49521"
  3717                           
  3718  000D0E                     l235:
  3719  000D0E  0012               	return
  3720                           opt subtitle "HI-TECH Software Omniscient Code Generator (Lite mode) build 49521"
  3721                           
  3722  000D10                     	__end_of_init_display:
  3723                           opt subtitle "HI-TECH Software Omniscient Code Generator (Lite mode) build 49521"
  3724                           
  3725                           opt pagewidth 120
  3726                           
  3727                           	opt lm
  3728                           
  3729                           	processor	18F25K22
  3730                           porta	equ	0F80h
  3731                           portb	equ	0F81h
  3732                           portc	equ	0F82h
  3733                           portd	equ	0F83h
  3734                           porte	equ	0F84h
  3735                           lata	equ	0F89h
  3736                           latb	equ	0F8Ah
  3737                           latc	equ	0F8Bh
  3738                           latd	equ	0F8Ch
  3739                           late	equ	0F8Dh
  3740                           trisa	equ	0F92h
  3741                           trisb	equ	0F93h
  3742                           trisc	equ	0F94h
  3743                           trisd	equ	0F95h
  3744                           trise	equ	0F96h
  3745                           pie1	equ	0F9Dh
  3746                           pir1	equ	0F9Eh
  3747                           ipr1	equ	0F9Fh
  3748                           pie2	equ	0FA0h
  3749                           pir2	equ	0FA1h
  3750                           ipr2	equ	0FA2h
  3751                           t3con	equ	0FB1h
  3752                           tmr3l	equ	0FB2h
  3753                           tmr3h	equ	0FB3h
  3754                           ccp1con	equ	0FBDh
  3755                           ccpr1l	equ	0FBEh
  3756                           ccpr1h	equ	0FBFh
  3757  000FF2                     __ptext6:
  3758                           opt subtitle "HI-TECH Software Omniscient Code Generator (Lite mode) build 49521"
  3759                           
  3760                           opt pagewidth 120
  3761                           
  3762  0000                     	__size_of_set_address_line1	equ	__end_of_set_address_line1-_set_address_line1
  3763                           opt subtitle "HI-TECH Software Omniscient Code Generator (Lite mode) build 49521"
  3764  000FF2                     _set_address_line1:
  3765                           opt subtitle "HI-TECH Software Omniscient Code Generator (Lite mode) build 49521"
  3766                           
  3767                           opt pagewidth 120
  3768  000FF2                     l1271:
  3769                           opt subtitle "HI-TECH Software Omniscient Code Generator (Lite mode) build 49521"
  3770  000FF2  5014               	movf	((c:set_address_line1@position)),c,w
  3771  000FF4  0F7F               	addlw	low(07Fh)
  3772  000FF6  6E12               	movwf	((c:?_write_command)),c
  3773  000FF8  ECDF  F007         	call	_write_command	;wreg free
  3774                           opt subtitle "HI-TECH Software Omniscient Code Generator (Lite mode) build 49521"
  3775                           
  3776  000FFC                     l1273:
  3777                           opt subtitle "HI-TECH Software Omniscient Code Generator (Lite mode) build 49521"
  3778  000FFC  0EFA               	movlw	250
  3779  000FFE                     u697:
  3780  000FFE  F000               	nop
  3781  001000  2EE8               decfsz	wreg,f
  3782  001002  D7FD               	goto	u697
  3783                           opt subtitle "HI-TECH Software Omniscient Code Generator (Lite mode) build 49521"
  3784                           
  3785                           opt pagewidth 120
  3786  001004                     l250:
  3787  001004  0012               	return
  3788                           opt subtitle "HI-TECH Software Omniscient Code Generator (Lite mode) build 49521"
  3789                           
  3790  001006                     	__end_of_set_address_line1:
  3791                           opt subtitle "HI-TECH Software Omniscient Code Generator (Lite mode) build 49521"
  3792                           
  3793                           opt pagewidth 120
  3794                           
  3795                           	opt lm
  3796                           
  3797                           	processor	18F25K22
  3798                           porta	equ	0F80h
  3799                           portb	equ	0F81h
  3800                           portc	equ	0F82h
  3801                           portd	equ	0F83h
  3802                           porte	equ	0F84h
  3803                           lata	equ	0F89h
  3804                           latb	equ	0F8Ah
  3805                           latc	equ	0F8Bh
  3806                           latd	equ	0F8Ch
  3807                           late	equ	0F8Dh
  3808                           trisa	equ	0F92h
  3809                           trisb	equ	0F93h
  3810                           trisc	equ	0F94h
  3811                           trisd	equ	0F95h
  3812                           trise	equ	0F96h
  3813                           pie1	equ	0F9Dh
  3814                           pir1	equ	0F9Eh
  3815                           ipr1	equ	0F9Fh
  3816                           pie2	equ	0FA0h
  3817                           pir2	equ	0FA1h
  3818                           ipr2	equ	0FA2h
  3819                           t3con	equ	0FB1h
  3820                           tmr3l	equ	0FB2h
  3821                           tmr3h	equ	0FB3h
  3822                           ccp1con	equ	0FBDh
  3823                           ccpr1l	equ	0FBEh
  3824                           ccpr1h	equ	0FBFh
  3825                           adcon1	equ	0FC1h
  3826                           adcon0	equ	0FC2h
  3827  000F22                     __ptext7:
  3828                           opt subtitle "HI-TECH Software Omniscient Code Generator (Lite mode) build 49521"
  3829                           
  3830                           opt pagewidth 120
  3831                           
  3832  0000                     	__size_of_send_msg	equ	__end_of_send_msg-_send_msg
  3833                           opt subtitle "HI-TECH Software Omniscient Code Generator (Lite mode) build 49521"
  3834  000F22                     _send_msg:
  3835                           opt subtitle "HI-TECH Software Omniscient Code Generator (Lite mode) build 49521"
  3836                           
  3837                           opt pagewidth 120
  3838  000F22                     l1275:
  3839                           opt subtitle "HI-TECH Software Omniscient Code Generator (Lite mode) build 49521"
  3840  000F22  D00C               	goto	l1281
  3841                           opt subtitle "HI-TECH Software Omniscient Code Generator (Lite mode) build 49521"
  3842  000F24                     l260:
  3843                           opt subtitle "HI-TECH Software Omniscient Code Generator (Lite mode) build 49521"
  3844                           
  3845  000F24                     l1277:
  3846                           opt subtitle "HI-TECH Software Omniscient Code Generator (Lite mode) build 49521"
  3847  000F24  C018  FFF6         	movff	(c:send_msg@text),tblptrl
  3848  000F28  C019  FFF7         	movff	(c:send_msg@text+1),tblptrh
  3849  000F2C  0008               	tblrd	*
  3850                           opt subtitle "HI-TECH Software Omniscient Code Generator (Lite mode) build 49521"
  3851  000F2E  CFF5 F017          	movff	tablat,(c:?_write_data)
  3852  000F32  EC16  F008         	call	_write_data	;wreg free
  3853                           opt subtitle "HI-TECH Software Omniscient Code Generator (Lite mode) build 49521"
  3854  000F36                     l1279:
  3855  000F36  4A18               	infsnz	((c:send_msg@text)),c
  3856  000F38  2A19               	incf	((c:send_msg@text+1)),c
  3857  000F3A  D000               	goto	l1281
  3858                           opt subtitle "HI-TECH Software Omniscient Code Generator (Lite mode) build 49521"
  3859  000F3C                     l259:
  3860                           opt subtitle "HI-TECH Software Omniscient Code Generator (Lite mode) build 49521"
  3861                           
  3862  000F3C                     l1281:
  3863  000F3C  C018  FFF6         	movff	(c:send_msg@text),tblptrl
  3864  000F40  C019  FFF7         	movff	(c:send_msg@text+1),tblptrh
  3865  000F44  0008               	tblrd	*
  3866                           opt subtitle "HI-TECH Software Omniscient Code Generator (Lite mode) build 49521"
  3867  000F46  50F5               	movf	tablat,w
  3868                           opt subtitle "HI-TECH Software Omniscient Code Generator (Lite mode) build 49521"
  3869  000F48  0900               	iorlw	0
  3870  000F4A  A4D8               	btfss	status,2
  3871  000F4C  D001               	goto	u381
  3872  000F4E  D001               	goto	u380
  3873  000F50                     u381:
  3874  000F50  D7E9               	goto	l1277
  3875  000F52                     u380:
  3876  000F52  D000               	goto	l262
  3877                           opt subtitle "HI-TECH Software Omniscient Code Generator (Lite mode) build 49521"
  3878  000F54                     l261:
  3879                           opt subtitle "HI-TECH Software Omniscient Code Generator (Lite mode) build 49521"
  3880                           
  3881  000F54                     l262:
  3882  000F54  0012               	return
  3883                           opt subtitle "HI-TECH Software Omniscient Code Generator (Lite mode) build 49521"
  3884                           
  3885  000F56                     	__end_of_send_msg:
  3886                           opt subtitle "HI-TECH Software Omniscient Code Generator (Lite mode) build 49521"
  3887                           
  3888                           opt pagewidth 120
  3889                           
  3890                           	opt lm
  3891                           
  3892                           	processor	18F25K22
  3893                           porta	equ	0F80h
  3894                           portb	equ	0F81h
  3895                           portc	equ	0F82h
  3896                           portd	equ	0F83h
  3897                           porte	equ	0F84h
  3898                           lata	equ	0F89h
  3899                           latb	equ	0F8Ah
  3900                           latc	equ	0F8Bh
  3901                           latd	equ	0F8Ch
  3902                           late	equ	0F8Dh
  3903                           trisa	equ	0F92h
  3904                           trisb	equ	0F93h
  3905                           trisc	equ	0F94h
  3906                           trisd	equ	0F95h
  3907                           trise	equ	0F96h
  3908                           pie1	equ	0F9Dh
  3909                           pir1	equ	0F9Eh
  3910                           ipr1	equ	0F9Fh
  3911                           pie2	equ	0FA0h
  3912                           pir2	equ	0FA1h
  3913                           ipr2	equ	0FA2h
  3914                           t3con	equ	0FB1h
  3915                           tmr3l	equ	0FB2h
  3916                           tmr3h	equ	0FB3h
  3917                           ccp1con	equ	0FBDh
  3918                           ccpr1l	equ	0FBEh
  3919                           ccpr1h	equ	0FBFh
  3920  001006                     __ptext8:
  3921                           opt subtitle "HI-TECH Software Omniscient Code Generator (Lite mode) build 49521"
  3922                           
  3923                           opt pagewidth 120
  3924                           
  3925  0000                     	__size_of_set_address_line2	equ	__end_of_set_address_line2-_set_address_line2
  3926                           opt subtitle "HI-TECH Software Omniscient Code Generator (Lite mode) build 49521"
  3927  001006                     _set_address_line2:
  3928                           opt subtitle "HI-TECH Software Omniscient Code Generator (Lite mode) build 49521"
  3929                           
  3930                           opt pagewidth 120
  3931  001006                     l1283:
  3932                           opt subtitle "HI-TECH Software Omniscient Code Generator (Lite mode) build 49521"
  3933  001006  5014               	movf	((c:set_address_line2@position)),c,w
  3934  001008  0FBF               	addlw	low(0BFh)
  3935  00100A  6E12               	movwf	((c:?_write_command)),c
  3936  00100C  ECDF  F007         	call	_write_command	;wreg free
  3937                           opt subtitle "HI-TECH Software Omniscient Code Generator (Lite mode) build 49521"
  3938                           
  3939  001010                     l1285:
  3940                           opt subtitle "HI-TECH Software Omniscient Code Generator (Lite mode) build 49521"
  3941  001010  0EFA               	movlw	250
  3942  001012                     u707:
  3943  001012  F000               	nop
  3944  001014  2EE8               decfsz	wreg,f
  3945  001016  D7FD               	goto	u707
  3946                           opt subtitle "HI-TECH Software Omniscient Code Generator (Lite mode) build 49521"
  3947                           
  3948                           opt pagewidth 120
  3949  001018                     l253:
  3950  001018  0012               	return
  3951                           opt subtitle "HI-TECH Software Omniscient Code Generator (Lite mode) build 49521"
  3952                           
  3953  00101A                     	__end_of_set_address_line2:
  3954                           opt subtitle "HI-TECH Software Omniscient Code Generator (Lite mode) build 49521"
  3955                           
  3956                           opt pagewidth 120
  3957                           
  3958                           	opt lm
  3959                           
  3960                           	processor	18F25K22
  3961                           porta	equ	0F80h
  3962                           portb	equ	0F81h
  3963                           portc	equ	0F82h
  3964                           portd	equ	0F83h
  3965                           porte	equ	0F84h
  3966                           lata	equ	0F89h
  3967                           latb	equ	0F8Ah
  3968                           latc	equ	0F8Bh
  3969                           latd	equ	0F8Ch
  3970                           late	equ	0F8Dh
  3971                           trisa	equ	0F92h
  3972                           trisb	equ	0F93h
  3973                           trisc	equ	0F94h
  3974                           trisd	equ	0F95h
  3975                           trise	equ	0F96h
  3976                           pie1	equ	0F9Dh
  3977                           pir1	equ	0F9Eh
  3978                           ipr1	equ	0F9Fh
  3979                           pie2	equ	0FA0h
  3980                           pir2	equ	0FA1h
  3981                           ipr2	equ	0FA2h
  3982                           t3con	equ	0FB1h
  3983                           tmr3l	equ	0FB2h
  3984                           tmr3h	equ	0FB3h
  3985                           ccp1con	equ	0FBDh
  3986                           ccpr1l	equ	0FBEh
  3987                           ccpr1h	equ	0FBFh
  3988                           adcon1	equ	0FC1h
  3989  00102C                     __ptext9:
  3990                           opt subtitle "HI-TECH Software Omniscient Code Generator (Lite mode) build 49521"
  3991                           
  3992                           opt pagewidth 120
  3993                           
  3994  0000                     	__size_of_write_data	equ	__end_of_write_data-_write_data
  3995                           opt subtitle "HI-TECH Software Omniscient Code Generator (Lite mode) build 49521"
  3996  00102C                     _write_data:
  3997                           opt subtitle "HI-TECH Software Omniscient Code Generator (Lite mode) build 49521"
  3998                           
  3999                           opt pagewidth 120
  4000  00102C                     l1287:
  4001                           opt subtitle "HI-TECH Software Omniscient Code Generator (Lite mode) build 49521"
  4002  00102C  848A               	bsf	c:(31826/8),(31826)&7	;volatile
  4003                           opt subtitle "HI-TECH Software Omniscient Code Generator (Lite mode) build 49521"
  4004                           
  4005  00102E                     l1289:
  4006                           opt subtitle "HI-TECH Software Omniscient Code Generator (Lite mode) build 49521"
  4007  00102E  C017  F00F         	movff	(c:write_data@data_to_write),(c:?_write_4bit_data)
  4008  001032  EC4A  F007         	call	_write_4bit_data	;wreg free
  4009                           opt subtitle "HI-TECH Software Omniscient Code Generator (Lite mode) build 49521"
  4010                           
  4011  001036                     l1291:
  4012                           opt subtitle "HI-TECH Software Omniscient Code Generator (Lite mode) build 49521"
  4013  001036  948A               	bcf	c:(31826/8),(31826)&7	;volatile
  4014                           opt subtitle "HI-TECH Software Omniscient Code Generator (Lite mode) build 49521"
  4015                           
  4016  001038                     l244:
  4017  001038  0012               	return
  4018                           opt subtitle "HI-TECH Software Omniscient Code Generator (Lite mode) build 49521"
  4019                           
  4020  00103A                     	__end_of_write_data:
  4021                           opt subtitle "HI-TECH Software Omniscient Code Generator (Lite mode) build 49521"
  4022                           
  4023                           opt pagewidth 120
  4024                           
  4025                           	opt lm
  4026                           
  4027                           	processor	18F25K22
  4028                           porta	equ	0F80h
  4029                           portb	equ	0F81h
  4030                           portc	equ	0F82h
  4031                           portd	equ	0F83h
  4032                           porte	equ	0F84h
  4033                           lata	equ	0F89h
  4034                           latb	equ	0F8Ah
  4035                           latc	equ	0F8Bh
  4036                           latd	equ	0F8Ch
  4037                           late	equ	0F8Dh
  4038                           trisa	equ	0F92h
  4039                           trisb	equ	0F93h
  4040                           trisc	equ	0F94h
  4041                           trisd	equ	0F95h
  4042                           trise	equ	0F96h
  4043                           pie1	equ	0F9Dh
  4044                           pir1	equ	0F9Eh
  4045                           ipr1	equ	0F9Fh
  4046                           pie2	equ	0FA0h
  4047                           pir2	equ	0FA1h
  4048                           ipr2	equ	0FA2h
  4049                           t3con	equ	0FB1h
  4050                           tmr3l	equ	0FB2h
  4051                           tmr3h	equ	0FB3h
  4052                           ccp1con	equ	0FBDh
  4053                           ccpr1l	equ	0FBEh
  4054                           ccpr1h	equ	0FBFh
  4055  00101A                     __ptext10:
  4056                           opt subtitle "HI-TECH Software Omniscient Code Generator (Lite mode) build 49521"
  4057                           
  4058                           opt pagewidth 120
  4059                           
  4060  0000                     	__size_of_write_8bit_data	equ	__end_of_write_8bit_data-_write_8bit_data
  4061                           opt subtitle "HI-TECH Software Omniscient Code Generator (Lite mode) build 49521"
  4062  00101A                     _write_8bit_data:
  4063                           opt subtitle "HI-TECH Software Omniscient Code Generator (Lite mode) build 49521"
  4064                           
  4065                           opt pagewidth 120
  4066  00101A                     l1293:
  4067                           opt subtitle "HI-TECH Software Omniscient Code Generator (Lite mode) build 49521"
  4068  00101A  C00F  FF81         	movff	(c:write_8bit_data@data_to_send),(c:3969)	;volatile
  4069                           opt subtitle "HI-TECH Software Omniscient Code Generator (Lite mode) build 49521"
  4070                           
  4071  00101E  828A               	bsf	c:(31825/8),(31825)&7	;volatile
  4072                           opt subtitle "HI-TECH Software Omniscient Code Generator (Lite mode) build 49521"
  4073                           
  4074  001020                     l1295:
  4075                           opt subtitle "HI-TECH Software Omniscient Code Generator (Lite mode) build 49521"
  4076  001020  0EFA               	movlw	250
  4077  001022                     u717:
  4078  001022  F000               	nop
  4079  001024  2EE8               decfsz	wreg,f
  4080  001026  D7FD               	goto	u717
  4081                           opt subtitle "HI-TECH Software Omniscient Code Generator (Lite mode) build 49521"
  4082                           
  4083                           opt pagewidth 120
  4084  001028                     l1297:
  4085                           opt subtitle "HI-TECH Software Omniscient Code Generator (Lite mode) build 49521"
  4086  001028  928A               	bcf	c:(31825/8),(31825)&7	;volatile
  4087                           opt subtitle "HI-TECH Software Omniscient Code Generator (Lite mode) build 49521"
  4088                           
  4089  00102A                     l238:
  4090  00102A  0012               	return
  4091                           opt subtitle "HI-TECH Software Omniscient Code Generator (Lite mode) build 49521"
  4092                           
  4093  00102C                     	__end_of_write_8bit_data:
  4094                           opt subtitle "HI-TECH Software Omniscient Code Generator (Lite mode) build 49521"
  4095                           
  4096                           opt pagewidth 120
  4097                           
  4098                           	opt lm
  4099                           
  4100                           	processor	18F25K22
  4101                           porta	equ	0F80h
  4102                           portb	equ	0F81h
  4103                           portc	equ	0F82h
  4104                           portd	equ	0F83h
  4105                           porte	equ	0F84h
  4106                           lata	equ	0F89h
  4107                           latb	equ	0F8Ah
  4108                           latc	equ	0F8Bh
  4109                           latd	equ	0F8Ch
  4110                           late	equ	0F8Dh
  4111                           trisa	equ	0F92h
  4112                           trisb	equ	0F93h
  4113                           trisc	equ	0F94h
  4114                           trisd	equ	0F95h
  4115                           trise	equ	0F96h
  4116                           pie1	equ	0F9Dh
  4117                           pir1	equ	0F9Eh
  4118                           ipr1	equ	0F9Fh
  4119                           pie2	equ	0FA0h
  4120                           pir2	equ	0FA1h
  4121                           ipr2	equ	0FA2h
  4122                           t3con	equ	0FB1h
  4123                           tmr3l	equ	0FB2h
  4124                           tmr3h	equ	0FB3h
  4125                           ccp1con	equ	0FBDh
  4126                           ccpr1l	equ	0FBEh
  4127                           ccpr1h	equ	0FBFh
  4128                           adcon1	equ	0FC1h
  4129                           adcon0	equ	0FC2h
  4130  000FBE                     __ptext11:
  4131                           opt subtitle "HI-TECH Software Omniscient Code Generator (Lite mode) build 49521"
  4132                           
  4133                           opt pagewidth 120
  4134                           
  4135  0000                     	__size_of_write_command	equ	__end_of_write_command-_write_command
  4136                           opt subtitle "HI-TECH Software Omniscient Code Generator (Lite mode) build 49521"
  4137  000FBE                     _write_command:
  4138                           opt subtitle "HI-TECH Software Omniscient Code Generator (Lite mode) build 49521"
  4139                           
  4140                           opt pagewidth 120
  4141  000FBE                     l1329:
  4142                           opt subtitle "HI-TECH Software Omniscient Code Generator (Lite mode) build 49521"
  4143  000FBE  948A               	bcf	c:(31826/8),(31826)&7	;volatile
  4144                           opt subtitle "HI-TECH Software Omniscient Code Generator (Lite mode) build 49521"
  4145                           
  4146  000FC0                     l1331:
  4147                           opt subtitle "HI-TECH Software Omniscient Code Generator (Lite mode) build 49521"
  4148  000FC0  C012  F00F         	movff	(c:write_command@command_to_write),(c:?_write_4bit_data)
  4149  000FC4  EC4A  F007         	call	_write_4bit_data	;wreg free
  4150                           opt subtitle "HI-TECH Software Omniscient Code Generator (Lite mode) build 49521"
  4151                           
  4152  000FC8                     l1333:
  4153                           opt subtitle "HI-TECH Software Omniscient Code Generator (Lite mode) build 49521"
  4154  000FC8  0E03               	movlw	3
  4155  000FCA  6E13               movwf	(??_write_command+0+0)&0ffh,c,f
  4156  000FCC  0E97               	movlw	151
  4157  000FCE                     u727:
  4158  000FCE  2EE8               	decfsz	wreg,f
  4159  000FD0  D7FE               	goto	u727
  4160  000FD2  2E13               	decfsz	(??_write_command+0+0)&0ffh,c,f
  4161  000FD4  D7FC               	goto	u727
  4162  000FD6  D000               	nop2
  4163                           opt subtitle "HI-TECH Software Omniscient Code Generator (Lite mode) build 49521"
  4164                           
  4165                           opt pagewidth 120
  4166  000FD8                     l1335:
  4167                           opt subtitle "HI-TECH Software Omniscient Code Generator (Lite mode) build 49521"
  4168  000FD8  848A               	bsf	c:(31826/8),(31826)&7	;volatile
  4169                           opt subtitle "HI-TECH Software Omniscient Code Generator (Lite mode) build 49521"
  4170                           
  4171  000FDA                     l247:
  4172  000FDA  0012               	return
  4173                           opt subtitle "HI-TECH Software Omniscient Code Generator (Lite mode) build 49521"
  4174                           
  4175  000FDC                     	__end_of_write_command:
  4176                           opt subtitle "HI-TECH Software Omniscient Code Generator (Lite mode) build 49521"
  4177                           
  4178                           opt pagewidth 120
  4179                           
  4180                           	opt lm
  4181                           
  4182                           	processor	18F25K22
  4183                           porta	equ	0F80h
  4184                           portb	equ	0F81h
  4185                           portc	equ	0F82h
  4186                           portd	equ	0F83h
  4187                           porte	equ	0F84h
  4188                           lata	equ	0F89h
  4189                           latb	equ	0F8Ah
  4190                           latc	equ	0F8Bh
  4191                           latd	equ	0F8Ch
  4192                           late	equ	0F8Dh
  4193                           trisa	equ	0F92h
  4194                           trisb	equ	0F93h
  4195                           trisc	equ	0F94h
  4196                           trisd	equ	0F95h
  4197                           trise	equ	0F96h
  4198                           pie1	equ	0F9Dh
  4199                           pir1	equ	0F9Eh
  4200                           ipr1	equ	0F9Fh
  4201                           pie2	equ	0FA0h
  4202                           pir2	equ	0FA1h
  4203                           ipr2	equ	0FA2h
  4204                           t3con	equ	0FB1h
  4205                           tmr3l	equ	0FB2h
  4206                           tmr3h	equ	0FB3h
  4207                           ccp1con	equ	0FBDh
  4208                           ccpr1l	equ	0FBEh
  4209                           ccpr1h	equ	0FBFh
  4210                           adcon1	equ	0FC1h
  4211                           adcon0	equ	0FC2h
  4212  000E94                     __ptext12:
  4213                           opt subtitle "HI-TECH Software Omniscient Code Generator (Lite mode) build 49521"
  4214                           
  4215                           opt pagewidth 120
  4216                           
  4217  0000                     	__size_of_write_4bit_data	equ	__end_of_write_4bit_data-_write_4bit_data
  4218                           opt subtitle "HI-TECH Software Omniscient Code Generator (Lite mode) build 49521"
  4219  000E94                     _write_4bit_data:
  4220                           opt subtitle "HI-TECH Software Omniscient Code Generator (Lite mode) build 49521"
  4221                           
  4222                           opt pagewidth 120
  4223  000E94                     l1299:
  4224                           opt subtitle "HI-TECH Software Omniscient Code Generator (Lite mode) build 49521"
  4225  000E94  6E10               	movwf	(??_write_4bit_data+0+0)&0ffh,c
  4226  000E96  0E00               	movlw	low(0)
  4227  000E98  6E11               	movwf	((c:write_4bit_data@temp)),c
  4228  000E9A  5010               	movf	(??_write_4bit_data+0+0)&0ffh,c,w
  4229                           opt subtitle "HI-TECH Software Omniscient Code Generator (Lite mode) build 49521"
  4230                           
  4231  000E9C                     l1301:
  4232                           opt subtitle "HI-TECH Software Omniscient Code Generator (Lite mode) build 49521"
  4233  000E9C  5081               	movf	((c:3969)),c,w	;volatile
  4234  000E9E  0B0F               	andlw	low(0Fh)
  4235  000EA0  6E81               	movwf	((c:3969)),c	;volatile
  4236                           opt subtitle "HI-TECH Software Omniscient Code Generator (Lite mode) build 49521"
  4237                           
  4238  000EA2                     l1303:
  4239                           opt subtitle "HI-TECH Software Omniscient Code Generator (Lite mode) build 49521"
  4240  000EA2  500F               	movf	((c:write_4bit_data@data_to_send)),c,w
  4241  000EA4  0BF0               	andlw	low(0F0h)
  4242  000EA6  6E11               	movwf	((c:write_4bit_data@temp)),c
  4243                           opt subtitle "HI-TECH Software Omniscient Code Generator (Lite mode) build 49521"
  4244                           
  4245  000EA8                     l1305:
  4246                           opt subtitle "HI-TECH Software Omniscient Code Generator (Lite mode) build 49521"
  4247  000EA8  5081               	movf	((c:3969)),c,w	;volatile
  4248  000EAA  1011               	iorwf	((c:write_4bit_data@temp)),c,w
  4249  000EAC  6E81               	movwf	((c:3969)),c	;volatile
  4250                           opt subtitle "HI-TECH Software Omniscient Code Generator (Lite mode) build 49521"
  4251                           
  4252  000EAE                     l1307:
  4253                           opt subtitle "HI-TECH Software Omniscient Code Generator (Lite mode) build 49521"
  4254  000EAE  828A               	bsf	c:(31825/8),(31825)&7	;volatile
  4255                           opt subtitle "HI-TECH Software Omniscient Code Generator (Lite mode) build 49521"
  4256                           
  4257  000EB0                     l1309:
  4258                           opt subtitle "HI-TECH Software Omniscient Code Generator (Lite mode) build 49521"
  4259  000EB0  0EFA               	movlw	250
  4260  000EB2                     u737:
  4261  000EB2  F000               	nop
  4262  000EB4  2EE8               decfsz	wreg,f
  4263  000EB6  D7FD               	goto	u737
  4264                           opt subtitle "HI-TECH Software Omniscient Code Generator (Lite mode) build 49521"
  4265                           
  4266                           opt pagewidth 120
  4267  000EB8                     l1311:
  4268                           opt subtitle "HI-TECH Software Omniscient Code Generator (Lite mode) build 49521"
  4269  000EB8  928A               	bcf	c:(31825/8),(31825)&7	;volatile
  4270                           opt subtitle "HI-TECH Software Omniscient Code Generator (Lite mode) build 49521"
  4271                           
  4272  000EBA                     l1313:
  4273                           opt subtitle "HI-TECH Software Omniscient Code Generator (Lite mode) build 49521"
  4274  000EBA  380F               	swapf	((c:write_4bit_data@data_to_send)),c,w
  4275  000EBC  0BF0               	andlw	(0ffh shl 4) & 0ffh
  4276  000EBE  6E0F               	movwf	((c:write_4bit_data@data_to_send)),c
  4277                           opt subtitle "HI-TECH Software Omniscient Code Generator (Lite mode) build 49521"
  4278                           
  4279  000EC0                     l1315:
  4280                           opt subtitle "HI-TECH Software Omniscient Code Generator (Lite mode) build 49521"
  4281  000EC0  0EFA               	movlw	250
  4282  000EC2                     u747:
  4283  000EC2  F000               	nop
  4284  000EC4  2EE8               decfsz	wreg,f
  4285  000EC6  D7FD               	goto	u747
  4286                           opt subtitle "HI-TECH Software Omniscient Code Generator (Lite mode) build 49521"
  4287                           
  4288                           opt pagewidth 120
  4289  000EC8                     l1317:
  4290                           opt subtitle "HI-TECH Software Omniscient Code Generator (Lite mode) build 49521"
  4291  000EC8  5081               	movf	((c:3969)),c,w	;volatile
  4292  000ECA  0B0F               	andlw	low(0Fh)
  4293  000ECC  6E81               	movwf	((c:3969)),c	;volatile
  4294                           opt subtitle "HI-TECH Software Omniscient Code Generator (Lite mode) build 49521"
  4295                           
  4296  000ECE                     l1319:
  4297                           opt subtitle "HI-TECH Software Omniscient Code Generator (Lite mode) build 49521"
  4298  000ECE  500F               	movf	((c:write_4bit_data@data_to_send)),c,w
  4299  000ED0  0BF0               	andlw	low(0F0h)
  4300  000ED2  6E11               	movwf	((c:write_4bit_data@temp)),c
  4301                           opt subtitle "HI-TECH Software Omniscient Code Generator (Lite mode) build 49521"
  4302                           
  4303  000ED4                     l1321:
  4304                           opt subtitle "HI-TECH Software Omniscient Code Generator (Lite mode) build 49521"
  4305  000ED4  5081               	movf	((c:3969)),c,w	;volatile
  4306  000ED6  1011               	iorwf	((c:write_4bit_data@temp)),c,w
  4307  000ED8  6E81               	movwf	((c:3969)),c	;volatile
  4308                           opt subtitle "HI-TECH Software Omniscient Code Generator (Lite mode) build 49521"
  4309                           
  4310  000EDA                     l1323:
  4311                           opt subtitle "HI-TECH Software Omniscient Code Generator (Lite mode) build 49521"
  4312  000EDA  828A               	bsf	c:(31825/8),(31825)&7	;volatile
  4313                           opt subtitle "HI-TECH Software Omniscient Code Generator (Lite mode) build 49521"
  4314                           
  4315  000EDC                     l1325:
  4316                           opt subtitle "HI-TECH Software Omniscient Code Generator (Lite mode) build 49521"
  4317  000EDC  0EFA               	movlw	250
  4318  000EDE                     u757:
  4319  000EDE  F000               	nop
  4320  000EE0  2EE8               decfsz	wreg,f
  4321  000EE2  D7FD               	goto	u757
  4322                           opt subtitle "HI-TECH Software Omniscient Code Generator (Lite mode) build 49521"
  4323                           
  4324                           opt pagewidth 120
  4325  000EE4                     l1327:
  4326                           opt subtitle "HI-TECH Software Omniscient Code Generator (Lite mode) build 49521"
  4327  000EE4  928A               	bcf	c:(31825/8),(31825)&7	;volatile
  4328                           opt subtitle "HI-TECH Software Omniscient Code Generator (Lite mode) build 49521"
  4329                           
  4330  000EE6                     l241:
  4331  000EE6  0012               	return
  4332                           opt subtitle "HI-TECH Software Omniscient Code Generator (Lite mode) build 49521"
  4333                           
  4334  000EE8                     	__end_of_write_4bit_data:
  4335                           opt subtitle "HI-TECH Software Omniscient Code Generator (Lite mode) build 49521"
  4336                           
  4337                           opt pagewidth 120
  4338                           
  4339                           	opt lm
  4340                           
  4341                           	processor	18F25K22
  4342                           porta	equ	0F80h
  4343                           portb	equ	0F81h
  4344                           portc	equ	0F82h
  4345                           portd	equ	0F83h
  4346                           porte	equ	0F84h
  4347                           lata	equ	0F89h
  4348                           latb	equ	0F8Ah
  4349                           latc	equ	0F8Bh
  4350                           latd	equ	0F8Ch
  4351                           late	equ	0F8Dh
  4352                           trisa	equ	0F92h
  4353                           trisb	equ	0F93h
  4354                           trisc	equ	0F94h
  4355                           trisd	equ	0F95h
  4356                           trise	equ	0F96h
  4357                           pie1	equ	0F9Dh
  4358                           pir1	equ	0F9Eh
  4359                           ipr1	equ	0F9Fh
  4360                           pie2	equ	0FA0h
  4361                           pir2	equ	0FA1h
  4362                           ipr2	equ	0FA2h
  4363                           t3con	equ	0FB1h
  4364                           tmr3l	equ	0FB2h
  4365                           tmr3h	equ	0FB3h
  4366                           ccp1con	equ	0FBDh
  4367                           ccpr1l	equ	0FBEh
  4368                           ccpr1h	equ	0FBFh
  4369                           adcon1	equ	0FC1h
  4370                           adcon0	equ	0FC2h
  4371                           adresl	equ	0FC3h
  4372  000D10                     __ptext13:
  4373                           opt subtitle "HI-TECH Software Omniscient Code Generator (Lite mode) build 49521"
  4374                           
  4375                           opt pagewidth 120
  4376                           
  4377  0000                     	__size_of___awdiv	equ	__end_of___awdiv-___awdiv
  4378                           opt subtitle "HI-TECH Software Omniscient Code Generator (Lite mode) build 49521"
  4379  000D10                     ___awdiv:
  4380                           opt subtitle "HI-TECH Software Omniscient Code Generator (Lite mode) build 49521"
  4381                           
  4382                           opt pagewidth 120
  4383  000D10                     l1341:
  4384  000D10  6E13               	movwf	(??___awdiv+0+0)&0ffh,c
  4385  000D12  0E00               	movlw	low(0)
  4386  000D14  6E15               	movwf	((c:___awdiv@sign)),c
  4387  000D16  5013               	movf	(??___awdiv+0+0)&0ffh,c,w
  4388                           opt subtitle "HI-TECH Software Omniscient Code Generator (Lite mode) build 49521"
  4389                           
  4390  000D18                     l1343:
  4391  000D18  AE12               	btfss	((c:___awdiv@divisor+1)),c,7
  4392  000D1A  D001               	goto	u391
  4393  000D1C  D001               	goto	u390
  4394  000D1E                     u391:
  4395  000D1E  D009               	goto	l1349
  4396  000D20                     u390:
  4397                           opt subtitle "HI-TECH Software Omniscient Code Generator (Lite mode) build 49521"
  4398                           
  4399  000D20                     l1345:
  4400  000D20  6C11               	negf	((c:___awdiv@divisor)),c
  4401  000D22  1E12               	comf	((c:___awdiv@divisor+1)),c
  4402  000D24  B0D8               	btfsc	status,0
  4403  000D26  2A12               	incf	((c:___awdiv@divisor+1)),c
  4404                           opt subtitle "HI-TECH Software Omniscient Code Generator (Lite mode) build 49521"
  4405                           
  4406  000D28                     l1347:
  4407  000D28  6E13               	movwf	(??___awdiv+0+0)&0ffh,c
  4408  000D2A  0E01               	movlw	low(01h)
  4409  000D2C  6E15               	movwf	((c:___awdiv@sign)),c
  4410  000D2E  5013               	movf	(??___awdiv+0+0)&0ffh,c,w
  4411  000D30  D000               	goto	l1349
  4412                           opt subtitle "HI-TECH Software Omniscient Code Generator (Lite mode) build 49521"
  4413                           
  4414  000D32                     l382:
  4415                           opt subtitle "HI-TECH Software Omniscient Code Generator (Lite mode) build 49521"
  4416                           
  4417  000D32                     l1349:
  4418  000D32  AE10               	btfss	((c:___awdiv@dividend+1)),c,7
  4419  000D34  D001               	goto	u401
  4420  000D36  D001               	goto	u400
  4421  000D38                     u401:
  4422  000D38  D007               	goto	l1355
  4423  000D3A                     u400:
  4424                           opt subtitle "HI-TECH Software Omniscient Code Generator (Lite mode) build 49521"
  4425                           
  4426  000D3A                     l1351:
  4427  000D3A  6C0F               	negf	((c:___awdiv@dividend)),c
  4428  000D3C  1E10               	comf	((c:___awdiv@dividend+1)),c
  4429  000D3E  B0D8               	btfsc	status,0
  4430  000D40  2A10               	incf	((c:___awdiv@dividend+1)),c
  4431                           opt subtitle "HI-TECH Software Omniscient Code Generator (Lite mode) build 49521"
  4432                           
  4433  000D42                     l1353:
  4434  000D42  0E01               	movlw	(01h)&0ffh
  4435  000D44  1A15               	xorwf	((c:___awdiv@sign)),c
  4436  000D46  D000               	goto	l1355
  4437                           opt subtitle "HI-TECH Software Omniscient Code Generator (Lite mode) build 49521"
  4438                           
  4439  000D48                     l383:
  4440                           opt subtitle "HI-TECH Software Omniscient Code Generator (Lite mode) build 49521"
  4441                           
  4442  000D48                     l1355:
  4443  000D48  0E00               	movlw	high(0)
  4444  000D4A  6E17               	movwf	((c:___awdiv@quotient+1)),c
  4445  000D4C  0E00               	movlw	low(0)
  4446  000D4E  6E16               	movwf	((c:___awdiv@quotient)),c
  4447                           opt subtitle "HI-TECH Software Omniscient Code Generator (Lite mode) build 49521"
  4448                           
  4449  000D50                     l1357:
  4450  000D50  5012               	movf	((c:___awdiv@divisor+1)),c,w
  4451  000D52  1011               	iorwf ((c:___awdiv@divisor)),c,w
  4452                           opt subtitle "HI-TECH Software Omniscient Code Generator (Lite mode) build 49521"
  4453  000D54  B4D8               	btfsc	status,2
  4454  000D56  D001               	goto	u411
  4455  000D58  D001               	goto	u410
  4456  000D5A                     u411:
  4457  000D5A  D028               	goto	l1377
  4458  000D5C                     u410:
  4459                           opt subtitle "HI-TECH Software Omniscient Code Generator (Lite mode) build 49521"
  4460                           
  4461  000D5C                     l1359:
  4462  000D5C  6E13               	movwf	(??___awdiv+0+0)&0ffh,c
  4463  000D5E  0E01               	movlw	low(01h)
  4464  000D60  6E14               	movwf	((c:___awdiv@counter)),c
  4465  000D62  5013               	movf	(??___awdiv+0+0)&0ffh,c,w
  4466                           opt subtitle "HI-TECH Software Omniscient Code Generator (Lite mode) build 49521"
  4467  000D64  D005               	goto	l1363
  4468                           opt subtitle "HI-TECH Software Omniscient Code Generator (Lite mode) build 49521"
  4469  000D66                     l386:
  4470                           opt subtitle "HI-TECH Software Omniscient Code Generator (Lite mode) build 49521"
  4471                           
  4472  000D66                     l1361:
  4473  000D66  90D8               	bcf	status,0
  4474  000D68  3611               	rlcf	((c:___awdiv@divisor)),c
  4475  000D6A  3612               	rlcf	((c:___awdiv@divisor+1)),c
  4476                           opt subtitle "HI-TECH Software Omniscient Code Generator (Lite mode) build 49521"
  4477  000D6C  2A14               	incf	((c:___awdiv@counter)),c
  4478  000D6E  D000               	goto	l1363
  4479                           opt subtitle "HI-TECH Software Omniscient Code Generator (Lite mode) build 49521"
  4480                           
  4481  000D70                     l385:
  4482                           opt subtitle "HI-TECH Software Omniscient Code Generator (Lite mode) build 49521"
  4483                           
  4484  000D70                     l1363:
  4485                           opt subtitle "HI-TECH Software Omniscient Code Generator (Lite mode) build 49521"
  4486  000D70  AE12               	btfss	((c:___awdiv@divisor+1)),c,(15)&7
  4487  000D72  D001               	goto	u421
  4488  000D74  D001               	goto	u420
  4489  000D76                     u421:
  4490  000D76  D7F7               	goto	l1361
  4491  000D78                     u420:
  4492  000D78  D001               	goto	l1365
  4493                           opt subtitle "HI-TECH Software Omniscient Code Generator (Lite mode) build 49521"
  4494  000D7A                     l387:
  4495  000D7A  D000               	goto	l1365
  4496                           opt subtitle "HI-TECH Software Omniscient Code Generator (Lite mode) build 49521"
  4497                           
  4498  000D7C                     l388:
  4499                           opt subtitle "HI-TECH Software Omniscient Code Generator (Lite mode) build 49521"
  4500                           
  4501  000D7C                     l1365:
  4502  000D7C  90D8               	bcf	status,0
  4503  000D7E  3616               	rlcf	((c:___awdiv@quotient)),c
  4504  000D80  3617               	rlcf	((c:___awdiv@quotient+1)),c
  4505                           opt subtitle "HI-TECH Software Omniscient Code Generator (Lite mode) build 49521"
  4506                           
  4507  000D82                     l1367:
  4508  000D82  5011               	movf	((c:___awdiv@divisor)),c,w
  4509  000D84  5C0F               	subwf	((c:___awdiv@dividend)),c,w
  4510  000D86  5012               	movf	((c:___awdiv@divisor+1)),c,w
  4511  000D88  5810               	subwfb	((c:___awdiv@dividend+1)),c,w
  4512  000D8A  A0D8               	btfss	status,0
  4513  000D8C  D001               	goto	u431
  4514  000D8E  D001               	goto	u430
  4515  000D90                     u431:
  4516  000D90  D006               	goto	l1373
  4517  000D92                     u430:
  4518                           opt subtitle "HI-TECH Software Omniscient Code Generator (Lite mode) build 49521"
  4519                           
  4520  000D92                     l1369:
  4521  000D92  5011               	movf	((c:___awdiv@divisor)),c,w
  4522  000D94  5E0F               	subwf	((c:___awdiv@dividend)),c
  4523  000D96  5012               	movf	((c:___awdiv@divisor+1)),c,w
  4524  000D98  5A10               	subwfb	((c:___awdiv@dividend+1)),c
  4525                           opt subtitle "HI-TECH Software Omniscient Code Generator (Lite mode) build 49521"
  4526                           
  4527                           opt pagewidth 120
  4528  000D9A                     l1371:
  4529  000D9A  8016               	bsf	(0+(0/8)+(c:___awdiv@quotient)),c,(0)&7
  4530  000D9C  D000               	goto	l1373
  4531                           opt subtitle "HI-TECH Software Omniscient Code Generator (Lite mode) build 49521"
  4532                           
  4533  000D9E                     l389:
  4534                           opt subtitle "HI-TECH Software Omniscient Code Generator (Lite mode) build 49521"
  4535                           
  4536  000D9E                     l1373:
  4537  000D9E  90D8               	bcf	status,0
  4538  000DA0  3212               	rrcf	((c:___awdiv@divisor+1)),c
  4539  000DA2  3211               	rrcf	((c:___awdiv@divisor)),c
  4540                           opt subtitle "HI-TECH Software Omniscient Code Generator (Lite mode) build 49521"
  4541                           
  4542  000DA4                     l1375:
  4543  000DA4  2E14               	decfsz	((c:___awdiv@counter)),c
  4544                           opt subtitle "HI-TECH Software Omniscient Code Generator (Lite mode) build 49521"
  4545  000DA6  D7EA               	goto	l1365
  4546  000DA8  D001               	goto	l1377
  4547                           opt subtitle "HI-TECH Software Omniscient Code Generator (Lite mode) build 49521"
  4548  000DAA                     l390:
  4549  000DAA  D000               	goto	l1377
  4550                           opt subtitle "HI-TECH Software Omniscient Code Generator (Lite mode) build 49521"
  4551                           
  4552  000DAC                     l384:
  4553                           opt subtitle "HI-TECH Software Omniscient Code Generator (Lite mode) build 49521"
  4554                           
  4555  000DAC                     l1377:
  4556  000DAC  5015               	movf	((c:___awdiv@sign)),c,w
  4557  000DAE  B4D8               	btfsc	status,2
  4558  000DB0  D001               	goto	u441
  4559  000DB2  D001               	goto	u440
  4560  000DB4                     u441:
  4561  000DB4  D005               	goto	l1381
  4562  000DB6                     u440:
  4563                           opt subtitle "HI-TECH Software Omniscient Code Generator (Lite mode) build 49521"
  4564                           
  4565  000DB6                     l1379:
  4566  000DB6  6C16               	negf	((c:___awdiv@quotient)),c
  4567  000DB8  1E17               	comf	((c:___awdiv@quotient+1)),c
  4568  000DBA  B0D8               	btfsc	status,0
  4569  000DBC  2A17               	incf	((c:___awdiv@quotient+1)),c
  4570  000DBE  D000               	goto	l1381
  4571                           opt subtitle "HI-TECH Software Omniscient Code Generator (Lite mode) build 49521"
  4572  000DC0                     l391:
  4573                           opt subtitle "HI-TECH Software Omniscient Code Generator (Lite mode) build 49521"
  4574                           
  4575  000DC0                     l1381:
  4576  000DC0  C016  F00F         	movff	(c:___awdiv@quotient),(c:?___awdiv)
  4577  000DC4  C017  F010         	movff	(c:___awdiv@quotient+1),(c:?___awdiv+1)
  4578  000DC8  D000               	goto	l392
  4579                           opt subtitle "HI-TECH Software Omniscient Code Generator (Lite mode) build 49521"
  4580  000DCA                     l1383:
  4581                           opt subtitle "HI-TECH Software Omniscient Code Generator (Lite mode) build 49521"
  4582                           
  4583  000DCA                     l392:
  4584  000DCA  0012               	return
  4585                           opt subtitle "HI-TECH Software Omniscient Code Generator (Lite mode) build 49521"
  4586                           
  4587  000DCC                     	__end_of___awdiv:
  4588                           opt subtitle "HI-TECH Software Omniscient Code Generator (Lite mode) build 49521"
  4589                           
  4590                           opt pagewidth 120
  4591                           
  4592                           	opt lm
  4593                           
  4594                           	processor	18F25K22
  4595                           porta	equ	0F80h
  4596                           portb	equ	0F81h
  4597                           portc	equ	0F82h
  4598                           portd	equ	0F83h
  4599                           porte	equ	0F84h
  4600                           lata	equ	0F89h
  4601                           latb	equ	0F8Ah
  4602                           latc	equ	0F8Bh
  4603                           latd	equ	0F8Ch
  4604                           late	equ	0F8Dh
  4605                           trisa	equ	0F92h
  4606                           trisb	equ	0F93h
  4607                           trisc	equ	0F94h
  4608                           trisd	equ	0F95h
  4609                           trise	equ	0F96h
  4610                           pie1	equ	0F9Dh
  4611                           pir1	equ	0F9Eh
  4612                           ipr1	equ	0F9Fh
  4613                           pie2	equ	0FA0h
  4614                           pir2	equ	0FA1h
  4615                           ipr2	equ	0FA2h
  4616                           t3con	equ	0FB1h
  4617                           tmr3l	equ	0FB2h
  4618                           tmr3h	equ	0FB3h
  4619                           ccp1con	equ	0FBDh
  4620                           ccpr1l	equ	0FBEh
  4621                           ccpr1h	equ	0FBFh
  4622                           adcon1	equ	0FC1h
  4623                           adcon0	equ	0FC2h
  4624  000DCC                     __ptext14:
  4625                           opt subtitle "HI-TECH Software Omniscient Code Generator (Lite mode) build 49521"
  4626                           
  4627                           opt pagewidth 120
  4628                           
  4629  0000                     	__size_of___lwdiv	equ	__end_of___lwdiv-___lwdiv
  4630                           opt subtitle "HI-TECH Software Omniscient Code Generator (Lite mode) build 49521"
  4631  000DCC                     ___lwdiv:
  4632                           opt subtitle "HI-TECH Software Omniscient Code Generator (Lite mode) build 49521"
  4633                           
  4634                           opt pagewidth 120
  4635  000DCC                     l1385:
  4636  000DCC  0E00               	movlw	high(0)
  4637  000DCE  6E15               	movwf	((c:___lwdiv@quotient+1)),c
  4638  000DD0  0E00               	movlw	low(0)
  4639  000DD2  6E14               	movwf	((c:___lwdiv@quotient)),c
  4640                           opt subtitle "HI-TECH Software Omniscient Code Generator (Lite mode) build 49521"
  4641                           
  4642  000DD4                     l1387:
  4643  000DD4  5012               	movf	((c:___lwdiv@divisor+1)),c,w
  4644  000DD6  1011               	iorwf ((c:___lwdiv@divisor)),c,w
  4645                           opt subtitle "HI-TECH Software Omniscient Code Generator (Lite mode) build 49521"
  4646  000DD8  B4D8               	btfsc	status,2
  4647  000DDA  D001               	goto	u451
  4648  000DDC  D001               	goto	u450
  4649  000DDE                     u451:
  4650  000DDE  D027               	goto	l723
  4651  000DE0                     u450:
  4652                           opt subtitle "HI-TECH Software Omniscient Code Generator (Lite mode) build 49521"
  4653                           
  4654  000DE0                     l1389:
  4655  000DE0  6E13               	movwf	(??___lwdiv+0+0)&0ffh,c
  4656  000DE2  0E01               	movlw	low(01h)
  4657  000DE4  6E16               	movwf	((c:___lwdiv@counter)),c
  4658  000DE6  5013               	movf	(??___lwdiv+0+0)&0ffh,c,w
  4659                           opt subtitle "HI-TECH Software Omniscient Code Generator (Lite mode) build 49521"
  4660  000DE8  D005               	goto	l1393
  4661                           opt subtitle "HI-TECH Software Omniscient Code Generator (Lite mode) build 49521"
  4662  000DEA                     l725:
  4663                           opt subtitle "HI-TECH Software Omniscient Code Generator (Lite mode) build 49521"
  4664                           
  4665  000DEA                     l1391:
  4666  000DEA  90D8               	bcf	status,0
  4667  000DEC  3611               	rlcf	((c:___lwdiv@divisor)),c
  4668  000DEE  3612               	rlcf	((c:___lwdiv@divisor+1)),c
  4669                           opt subtitle "HI-TECH Software Omniscient Code Generator (Lite mode) build 49521"
  4670  000DF0  2A16               	incf	((c:___lwdiv@counter)),c
  4671  000DF2  D000               	goto	l1393
  4672                           opt subtitle "HI-TECH Software Omniscient Code Generator (Lite mode) build 49521"
  4673                           
  4674  000DF4                     l724:
  4675                           opt subtitle "HI-TECH Software Omniscient Code Generator (Lite mode) build 49521"
  4676                           
  4677  000DF4                     l1393:
  4678                           opt subtitle "HI-TECH Software Omniscient Code Generator (Lite mode) build 49521"
  4679  000DF4  AE12               	btfss	((c:___lwdiv@divisor+1)),c,(15)&7
  4680  000DF6  D001               	goto	u461
  4681  000DF8  D001               	goto	u460
  4682  000DFA                     u461:
  4683  000DFA  D7F7               	goto	l1391
  4684  000DFC                     u460:
  4685  000DFC  D001               	goto	l1395
  4686                           opt subtitle "HI-TECH Software Omniscient Code Generator (Lite mode) build 49521"
  4687  000DFE                     l726:
  4688  000DFE  D000               	goto	l1395
  4689                           opt subtitle "HI-TECH Software Omniscient Code Generator (Lite mode) build 49521"
  4690                           
  4691  000E00                     l727:
  4692                           opt subtitle "HI-TECH Software Omniscient Code Generator (Lite mode) build 49521"
  4693                           
  4694  000E00                     l1395:
  4695  000E00  90D8               	bcf	status,0
  4696  000E02  3614               	rlcf	((c:___lwdiv@quotient)),c
  4697  000E04  3615               	rlcf	((c:___lwdiv@quotient+1)),c
  4698                           opt subtitle "HI-TECH Software Omniscient Code Generator (Lite mode) build 49521"
  4699                           
  4700  000E06                     l1397:
  4701  000E06  5011               	movf	((c:___lwdiv@divisor)),c,w
  4702  000E08  5C0F               	subwf	((c:___lwdiv@dividend)),c,w
  4703  000E0A  5012               	movf	((c:___lwdiv@divisor+1)),c,w
  4704  000E0C  5810               	subwfb	((c:___lwdiv@dividend+1)),c,w
  4705  000E0E  A0D8               	btfss	status,0
  4706  000E10  D001               	goto	u471
  4707  000E12  D001               	goto	u470
  4708  000E14                     u471:
  4709  000E14  D006               	goto	l1403
  4710  000E16                     u470:
  4711                           opt subtitle "HI-TECH Software Omniscient Code Generator (Lite mode) build 49521"
  4712                           
  4713  000E16                     l1399:
  4714  000E16  5011               	movf	((c:___lwdiv@divisor)),c,w
  4715  000E18  5E0F               	subwf	((c:___lwdiv@dividend)),c
  4716  000E1A  5012               	movf	((c:___lwdiv@divisor+1)),c,w
  4717  000E1C  5A10               	subwfb	((c:___lwdiv@dividend+1)),c
  4718                           opt subtitle "HI-TECH Software Omniscient Code Generator (Lite mode) build 49521"
  4719                           
  4720                           opt pagewidth 120
  4721  000E1E                     l1401:
  4722  000E1E  8014               	bsf	(0+(0/8)+(c:___lwdiv@quotient)),c,(0)&7
  4723  000E20  D000               	goto	l1403
  4724                           opt subtitle "HI-TECH Software Omniscient Code Generator (Lite mode) build 49521"
  4725                           
  4726  000E22                     l728:
  4727                           opt subtitle "HI-TECH Software Omniscient Code Generator (Lite mode) build 49521"
  4728                           
  4729  000E22                     l1403:
  4730  000E22  90D8               	bcf	status,0
  4731  000E24  3212               	rrcf	((c:___lwdiv@divisor+1)),c
  4732  000E26  3211               	rrcf	((c:___lwdiv@divisor)),c
  4733                           opt subtitle "HI-TECH Software Omniscient Code Generator (Lite mode) build 49521"
  4734                           
  4735  000E28                     l1405:
  4736  000E28  2E16               	decfsz	((c:___lwdiv@counter)),c
  4737                           opt subtitle "HI-TECH Software Omniscient Code Generator (Lite mode) build 49521"
  4738  000E2A  D7EA               	goto	l1395
  4739  000E2C  D000               	goto	l723
  4740                           opt subtitle "HI-TECH Software Omniscient Code Generator (Lite mode) build 49521"
  4741  000E2E                     l729:
  4742                           opt subtitle "HI-TECH Software Omniscient Code Generator (Lite mode) build 49521"
  4743                           
  4744  000E2E                     l723:
  4745                           opt subtitle "HI-TECH Software Omniscient Code Generator (Lite mode) build 49521"
  4746  000E2E  C014  F00F         	movff	(c:___lwdiv@quotient),(c:?___lwdiv)
  4747  000E32  C015  F010         	movff	(c:___lwdiv@quotient+1),(c:?___lwdiv+1)
  4748                           opt subtitle "HI-TECH Software Omniscient Code Generator (Lite mode) build 49521"
  4749                           
  4750  000E36                     l730:
  4751  000E36  0012               	return
  4752                           opt subtitle "HI-TECH Software Omniscient Code Generator (Lite mode) build 49521"
  4753                           
  4754  000E38                     	__end_of___lwdiv:
  4755                           opt subtitle "HI-TECH Software Omniscient Code Generator (Lite mode) build 49521"
  4756                           
  4757                           opt pagewidth 120
  4758                           
  4759                           	opt lm
  4760                           
  4761                           	processor	18F25K22
  4762                           porta	equ	0F80h
  4763                           portb	equ	0F81h
  4764                           portc	equ	0F82h
  4765                           portd	equ	0F83h
  4766                           porte	equ	0F84h
  4767                           lata	equ	0F89h
  4768                           latb	equ	0F8Ah
  4769                           latc	equ	0F8Bh
  4770                           latd	equ	0F8Ch
  4771                           late	equ	0F8Dh
  4772                           trisa	equ	0F92h
  4773                           trisb	equ	0F93h
  4774                           trisc	equ	0F94h
  4775                           trisd	equ	0F95h
  4776                           trise	equ	0F96h
  4777                           pie1	equ	0F9Dh
  4778                           pir1	equ	0F9Eh
  4779                           ipr1	equ	0F9Fh
  4780                           pie2	equ	0FA0h
  4781                           pir2	equ	0FA1h
  4782                           ipr2	equ	0FA2h
  4783                           t3con	equ	0FB1h
  4784                           tmr3l	equ	0FB2h
  4785                           tmr3h	equ	0FB3h
  4786                           ccp1con	equ	0FBDh
  4787                           ccpr1l	equ	0FBEh
  4788                           ccpr1h	equ	0FBFh
  4789                           adcon1	equ	0FC1h
  4790  000E38                     __ptext15:
  4791                           opt subtitle "HI-TECH Software Omniscient Code Generator (Lite mode) build 49521"
  4792                           
  4793                           opt pagewidth 120
  4794                           
  4795  0000                     	__size_of___lwmod	equ	__end_of___lwmod-___lwmod
  4796                           opt subtitle "HI-TECH Software Omniscient Code Generator (Lite mode) build 49521"
  4797  000E38                     ___lwmod:
  4798                           opt subtitle "HI-TECH Software Omniscient Code Generator (Lite mode) build 49521"
  4799                           
  4800                           opt pagewidth 120
  4801  000E38                     l1407:
  4802  000E38  5012               	movf	((c:___lwmod@divisor+1)),c,w
  4803  000E3A  1011               	iorwf ((c:___lwmod@divisor)),c,w
  4804                           opt subtitle "HI-TECH Software Omniscient Code Generator (Lite mode) build 49521"
  4805  000E3C  B4D8               	btfsc	status,2
  4806  000E3E  D001               	goto	u481
  4807  000E40  D001               	goto	u480
  4808  000E42                     u481:
  4809  000E42  D023               	goto	l733
  4810  000E44                     u480:
  4811                           opt subtitle "HI-TECH Software Omniscient Code Generator (Lite mode) build 49521"
  4812                           
  4813  000E44                     l1409:
  4814  000E44  6E13               	movwf	(??___lwmod+0+0)&0ffh,c
  4815  000E46  0E01               	movlw	low(01h)
  4816  000E48  6E14               	movwf	((c:___lwmod@counter)),c
  4817  000E4A  5013               	movf	(??___lwmod+0+0)&0ffh,c,w
  4818                           opt subtitle "HI-TECH Software Omniscient Code Generator (Lite mode) build 49521"
  4819  000E4C  D005               	goto	l1413
  4820                           opt subtitle "HI-TECH Software Omniscient Code Generator (Lite mode) build 49521"
  4821  000E4E                     l735:
  4822                           opt subtitle "HI-TECH Software Omniscient Code Generator (Lite mode) build 49521"
  4823                           
  4824  000E4E                     l1411:
  4825  000E4E  90D8               	bcf	status,0
  4826  000E50  3611               	rlcf	((c:___lwmod@divisor)),c
  4827  000E52  3612               	rlcf	((c:___lwmod@divisor+1)),c
  4828                           opt subtitle "HI-TECH Software Omniscient Code Generator (Lite mode) build 49521"
  4829  000E54  2A14               	incf	((c:___lwmod@counter)),c
  4830  000E56  D000               	goto	l1413
  4831                           opt subtitle "HI-TECH Software Omniscient Code Generator (Lite mode) build 49521"
  4832                           
  4833  000E58                     l734:
  4834                           opt subtitle "HI-TECH Software Omniscient Code Generator (Lite mode) build 49521"
  4835                           
  4836  000E58                     l1413:
  4837                           opt subtitle "HI-TECH Software Omniscient Code Generator (Lite mode) build 49521"
  4838  000E58  AE12               	btfss	((c:___lwmod@divisor+1)),c,(15)&7
  4839  000E5A  D001               	goto	u491
  4840  000E5C  D001               	goto	u490
  4841  000E5E                     u491:
  4842  000E5E  D7F7               	goto	l1411
  4843  000E60                     u490:
  4844  000E60  D001               	goto	l1415
  4845                           opt subtitle "HI-TECH Software Omniscient Code Generator (Lite mode) build 49521"
  4846  000E62                     l736:
  4847  000E62  D000               	goto	l1415
  4848                           opt subtitle "HI-TECH Software Omniscient Code Generator (Lite mode) build 49521"
  4849                           
  4850  000E64                     l737:
  4851                           opt subtitle "HI-TECH Software Omniscient Code Generator (Lite mode) build 49521"
  4852                           
  4853  000E64                     l1415:
  4854  000E64  5011               	movf	((c:___lwmod@divisor)),c,w
  4855  000E66  5C0F               	subwf	((c:___lwmod@dividend)),c,w
  4856  000E68  5012               	movf	((c:___lwmod@divisor+1)),c,w
  4857  000E6A  5810               	subwfb	((c:___lwmod@dividend+1)),c,w
  4858  000E6C  A0D8               	btfss	status,0
  4859  000E6E  D001               	goto	u501
  4860  000E70  D001               	goto	u500
  4861  000E72                     u501:
  4862  000E72  D005               	goto	l1419
  4863  000E74                     u500:
  4864                           opt subtitle "HI-TECH Software Omniscient Code Generator (Lite mode) build 49521"
  4865                           
  4866  000E74                     l1417:
  4867  000E74  5011               	movf	((c:___lwmod@divisor)),c,w
  4868  000E76  5E0F               	subwf	((c:___lwmod@dividend)),c
  4869  000E78  5012               	movf	((c:___lwmod@divisor+1)),c,w
  4870  000E7A  5A10               	subwfb	((c:___lwmod@dividend+1)),c
  4871                           opt subtitle "HI-TECH Software Omniscient Code Generator (Lite mode) build 49521"
  4872  000E7C  D000               	goto	l1419
  4873                           opt subtitle "HI-TECH Software Omniscient Code Generator (Lite mode) build 49521"
  4874  000E7E                     l738:
  4875                           opt subtitle "HI-TECH Software Omniscient Code Generator (Lite mode) build 49521"
  4876                           
  4877  000E7E                     l1419:
  4878  000E7E  90D8               	bcf	status,0
  4879  000E80  3212               	rrcf	((c:___lwmod@divisor+1)),c
  4880  000E82  3211               	rrcf	((c:___lwmod@divisor)),c
  4881                           opt subtitle "HI-TECH Software Omniscient Code Generator (Lite mode) build 49521"
  4882                           
  4883  000E84                     l1421:
  4884  000E84  2E14               	decfsz	((c:___lwmod@counter)),c
  4885                           opt subtitle "HI-TECH Software Omniscient Code Generator (Lite mode) build 49521"
  4886  000E86  D7EE               	goto	l1415
  4887  000E88  D000               	goto	l733
  4888                           opt subtitle "HI-TECH Software Omniscient Code Generator (Lite mode) build 49521"
  4889  000E8A                     l739:
  4890                           opt subtitle "HI-TECH Software Omniscient Code Generator (Lite mode) build 49521"
  4891                           
  4892  000E8A                     l733:
  4893                           opt subtitle "HI-TECH Software Omniscient Code Generator (Lite mode) build 49521"
  4894  000E8A  C00F  F00F         	movff	(c:___lwmod@dividend),(c:?___lwmod)
  4895  000E8E  C010  F010         	movff	(c:___lwmod@dividend+1),(c:?___lwmod+1)
  4896                           opt subtitle "HI-TECH Software Omniscient Code Generator (Lite mode) build 49521"
  4897                           
  4898  000E92                     l740:
  4899  000E92  0012               	return
  4900                           opt subtitle "HI-TECH Software Omniscient Code Generator (Lite mode) build 49521"
  4901                           
  4902  000E94                     	__end_of___lwmod:
  4903                           opt subtitle "HI-TECH Software Omniscient Code Generator (Lite mode) build 49521"
  4904                           
  4905                           opt pagewidth 120
  4906                           
  4907                           	opt lm
  4908                           
  4909                           	processor	18F25K22
  4910                           porta	equ	0F80h
  4911                           portb	equ	0F81h
  4912                           portc	equ	0F82h
  4913                           portd	equ	0F83h
  4914                           porte	equ	0F84h
  4915                           lata	equ	0F89h
  4916                           latb	equ	0F8Ah
  4917                           latc	equ	0F8Bh
  4918                           latd	equ	0F8Ch
  4919                           late	equ	0F8Dh
  4920                           trisa	equ	0F92h
  4921                           trisb	equ	0F93h
  4922                           trisc	equ	0F94h
  4923                           trisd	equ	0F95h
  4924                           trise	equ	0F96h
  4925                           pie1	equ	0F9Dh
  4926                           pir1	equ	0F9Eh
  4927                           ipr1	equ	0F9Fh
  4928                           pie2	equ	0FA0h
  4929                           pir2	equ	0FA1h
  4930                           ipr2	equ	0FA2h
  4931                           t3con	equ	0FB1h
  4932                           tmr3l	equ	0FB2h
  4933                           tmr3h	equ	0FB3h
  4934                           ccp1con	equ	0FBDh
  4935                           ccpr1l	equ	0FBEh
  4936  000008                     __pintcode:
  4937                           opt subtitle "HI-TECH Software Omniscient Code Generator (Lite mode) build 49521"
  4938                           
  4939                           opt pagewidth 120
  4940                           
  4941  0000                     	__size_of_allInterupts	equ	__end_of_allInterupts-_allInterupts
  4942                           opt subtitle "HI-TECH Software Omniscient Code Generator (Lite mode) build 49521"
  4943  000008                     _allInterupts:
  4944                           opt subtitle "HI-TECH Software Omniscient Code Generator (Lite mode) build 49521"
  4945  000008  CFFA F001          	movff	pclat+0,??_allInterupts+0
  4946  00000C  CFFB F002          	movff	pclat+1,??_allInterupts+1
  4947  000010  CFE9 F003          	movff	fsr0l+0,??_allInterupts+2
  4948  000014  CFEA F004          	movff	fsr0h+0,??_allInterupts+3
  4949  000018  CFE1 F005          	movff	fsr1l+0,??_allInterupts+4
  4950  00001C  CFE2 F006          	movff	fsr1h+0,??_allInterupts+5
  4951  000020  CFD9 F007          	movff	fsr2l+0,??_allInterupts+6
  4952  000024  CFDA F008          	movff	fsr2h+0,??_allInterupts+7
  4953  000028  CFF3 F009          	movff	prodl+0,??_allInterupts+8
  4954  00002C  CFF4 F00A          	movff	prodh+0,??_allInterupts+9
  4955  000030  CFF6 F00B          	movff	tblptrl+0,??_allInterupts+10
  4956  000034  CFF7 F00C          	movff	tblptrh+0,??_allInterupts+11
  4957  000038  CFF8 F00D          	movff	tblptru+0,??_allInterupts+12
  4958  00003C  CFF5 F00E          	movff	tablat+0,??_allInterupts+13
  4959                           opt subtitle "HI-TECH Software Omniscient Code Generator (Lite mode) build 49521"
  4960                           
  4961  000040                     i2l961:
  4962                           opt subtitle "HI-TECH Software Omniscient Code Generator (Lite mode) build 49521"
  4963                           
  4964  000040  A09E               	btfss	c:(31984/8),(31984)&7	;volatile
  4965  000042  D001               	goto	i2u1_41
  4966  000044  D001               	goto	i2u1_40
  4967  000046                     i2u1_41:
  4968  000046  D03A               	goto	i2l989
  4969  000048                     i2u1_40:
  4970                           opt subtitle "HI-TECH Software Omniscient Code Generator (Lite mode) build 49521"
  4971                           
  4972  000048                     i2l963:
  4973  000048  4A1C               	infsnz	((c:_count)),c
  4974  00004A  2A1D               	incf	((c:_count+1)),c
  4975                           opt subtitle "HI-TECH Software Omniscient Code Generator (Lite mode) build 49521"
  4976                           
  4977  00004C                     i2l965:
  4978                           opt subtitle "HI-TECH Software Omniscient Code Generator (Lite mode) build 49521"
  4979  00004C  501C               	movf	((c:_count)),c,w
  4980  00004E  0A0F               	xorlw	15
  4981  000050  101D               	iorwf ((c:_count+1)),c,w
  4982                           opt subtitle "HI-TECH Software Omniscient Code Generator (Lite mode) build 49521"
  4983  000052  A4D8               	btfss	status,2
  4984  000054  D001               	goto	i2u2_41
  4985  000056  D001               	goto	i2u2_40
  4986  000058                     i2u2_41:
  4987  000058  D02F               	goto	i2l987
  4988  00005A                     i2u2_40:
  4989                           opt subtitle "HI-TECH Software Omniscient Code Generator (Lite mode) build 49521"
  4990                           
  4991  00005A                     i2l967:
  4992                           opt subtitle "HI-TECH Software Omniscient Code Generator (Lite mode) build 49521"
  4993                           
  4994  00005A  4A2F               	infsnz	((c:_sec)),c
  4995  00005C  2A30               	incf	((c:_sec+1)),c
  4996                           opt subtitle "HI-TECH Software Omniscient Code Generator (Lite mode) build 49521"
  4997                           
  4998  00005E                     i2l969:
  4999                           opt subtitle "HI-TECH Software Omniscient Code Generator (Lite mode) build 49521"
  5000  00005E  0E00               	movlw	high(0)
  5001  000060  6E1D               	movwf	((c:_count+1)),c
  5002  000062  0E00               	movlw	low(0)
  5003  000064  6E1C               	movwf	((c:_count)),c
  5004                           opt subtitle "HI-TECH Software Omniscient Code Generator (Lite mode) build 49521"
  5005                           
  5006  000066                     i2l971:
  5007                           opt subtitle "HI-TECH Software Omniscient Code Generator (Lite mode) build 49521"
  5008  000066  502F               	movf	((c:_sec)),c,w
  5009  000068  0A3C               	xorlw	60
  5010  00006A  1030               	iorwf ((c:_sec+1)),c,w
  5011                           opt subtitle "HI-TECH Software Omniscient Code Generator (Lite mode) build 49521"
  5012  00006C  A4D8               	btfss	status,2
  5013  00006E  D001               	goto	i2u3_41
  5014  000070  D001               	goto	i2u3_40
  5015  000072                     i2u3_41:
  5016  000072  D022               	goto	i2l987
  5017  000074                     i2u3_40:
  5018                           opt subtitle "HI-TECH Software Omniscient Code Generator (Lite mode) build 49521"
  5019                           
  5020  000074                     i2l973:
  5021                           opt subtitle "HI-TECH Software Omniscient Code Generator (Lite mode) build 49521"
  5022                           
  5023  000074  4A2D               	infsnz	((c:_min)),c
  5024  000076  2A2E               	incf	((c:_min+1)),c
  5025                           opt subtitle "HI-TECH Software Omniscient Code Generator (Lite mode) build 49521"
  5026                           
  5027  000078                     i2l975:
  5028                           opt subtitle "HI-TECH Software Omniscient Code Generator (Lite mode) build 49521"
  5029  000078  0E00               	movlw	high(0)
  5030  00007A  6E30               	movwf	((c:_sec+1)),c
  5031  00007C  0E00               	movlw	low(0)
  5032  00007E  6E2F               	movwf	((c:_sec)),c
  5033                           opt subtitle "HI-TECH Software Omniscient Code Generator (Lite mode) build 49521"
  5034                           
  5035  000080                     i2l977:
  5036                           opt subtitle "HI-TECH Software Omniscient Code Generator (Lite mode) build 49521"
  5037                           
  5038  000080  502D               	movf	((c:_min)),c,w
  5039  000082  0A3C               	xorlw	60
  5040  000084  102E               	iorwf ((c:_min+1)),c,w
  5041                           opt subtitle "HI-TECH Software Omniscient Code Generator (Lite mode) build 49521"
  5042  000086  A4D8               	btfss	status,2
  5043  000088  D001               	goto	i2u4_41
  5044  00008A  D001               	goto	i2u4_40
  5045  00008C                     i2u4_41:
  5046  00008C  D015               	goto	i2l987
  5047  00008E                     i2u4_40:
  5048                           opt subtitle "HI-TECH Software Omniscient Code Generator (Lite mode) build 49521"
  5049                           
  5050  00008E                     i2l979:
  5051  00008E  4A2B               	infsnz	((c:_hr)),c
  5052  000090  2A2C               	incf	((c:_hr+1)),c
  5053                           opt subtitle "HI-TECH Software Omniscient Code Generator (Lite mode) build 49521"
  5054                           
  5055  000092                     i2l981:
  5056                           opt subtitle "HI-TECH Software Omniscient Code Generator (Lite mode) build 49521"
  5057  000092  0E00               	movlw	high(0)
  5058  000094  6E2E               	movwf	((c:_min+1)),c
  5059  000096  0E00               	movlw	low(0)
  5060  000098  6E2D               	movwf	((c:_min)),c
  5061                           opt subtitle "HI-TECH Software Omniscient Code Generator (Lite mode) build 49521"
  5062                           
  5063  00009A                     i2l983:
  5064                           opt subtitle "HI-TECH Software Omniscient Code Generator (Lite mode) build 49521"
  5065  00009A  502B               	movf	((c:_hr)),c,w
  5066  00009C  0A18               	xorlw	24
  5067  00009E  102C               	iorwf ((c:_hr+1)),c,w
  5068                           opt subtitle "HI-TECH Software Omniscient Code Generator (Lite mode) build 49521"
  5069  0000A0  A4D8               	btfss	status,2
  5070  0000A2  D001               	goto	i2u5_41
  5071  0000A4  D001               	goto	i2u5_40
  5072  0000A6                     i2u5_41:
  5073  0000A6  D008               	goto	i2l987
  5074  0000A8                     i2u5_40:
  5075                           opt subtitle "HI-TECH Software Omniscient Code Generator (Lite mode) build 49521"
  5076                           
  5077  0000A8                     i2l985:
  5078                           opt subtitle "HI-TECH Software Omniscient Code Generator (Lite mode) build 49521"
  5079                           
  5080  0000A8  0E00               	movlw	high(0)
  5081  0000AA  6E2C               	movwf	((c:_hr+1)),c
  5082  0000AC  0E00               	movlw	low(0)
  5083  0000AE  6E2B               	movwf	((c:_hr)),c
  5084  0000B0  D003               	goto	i2l987
  5085                           opt subtitle "HI-TECH Software Omniscient Code Generator (Lite mode) build 49521"
  5086                           
  5087  0000B2                     i2l157:
  5088  0000B2  D002               	goto	i2l987
  5089                           opt subtitle "HI-TECH Software Omniscient Code Generator (Lite mode) build 49521"
  5090                           
  5091  0000B4                     i2l156:
  5092  0000B4  D001               	goto	i2l987
  5093                           opt subtitle "HI-TECH Software Omniscient Code Generator (Lite mode) build 49521"
  5094                           
  5095  0000B6                     i2l155:
  5096  0000B6  D000               	goto	i2l987
  5097                           opt subtitle "HI-TECH Software Omniscient Code Generator (Lite mode) build 49521"
  5098                           
  5099  0000B8                     i2l154:
  5100                           opt subtitle "HI-TECH Software Omniscient Code Generator (Lite mode) build 49521"
  5101                           
  5102  0000B8                     i2l987:
  5103                           opt subtitle "HI-TECH Software Omniscient Code Generator (Lite mode) build 49521"
  5104                           
  5105                           opt pagewidth 120
  5106                           
  5107                           	opt lm
  5108  0000B8  909E               	bcf	c:(31984/8),(31984)&7	;volatile
  5109  0000BA  D000               	goto	i2l989
  5110                           opt subtitle "HI-TECH Software Omniscient Code Generator (Lite mode) build 49521"
  5111                           
  5112  0000BC                     i2l153:
  5113                           opt subtitle "HI-TECH Software Omniscient Code Generator (Lite mode) build 49521"
  5114                           
  5115  0000BC                     i2l989:
  5116                           opt subtitle "HI-TECH Software Omniscient Code Generator (Lite mode) build 49521"
  5117                           
  5118  0000BC  A4F2               	btfss	c:(32658/8),(32658)&7	;volatile
  5119  0000BE  D001               	goto	i2u6_41
  5120  0000C0  D001               	goto	i2u6_40
  5121  0000C2                     i2u6_41:
  5122  0000C2  D03A               	goto	i2l1015
  5123  0000C4                     i2u6_40:
  5124                           opt subtitle "HI-TECH Software Omniscient Code Generator (Lite mode) build 49521"
  5125                           
  5126  0000C4                     i2l991:
  5127  0000C4  4A20               	infsnz	((c:_heater_count)),c
  5128  0000C6  2A21               	incf	((c:_heater_count+1)),c
  5129                           opt subtitle "HI-TECH Software Omniscient Code Generator (Lite mode) build 49521"
  5130                           
  5131  0000C8                     i2l993:
  5132                           opt subtitle "HI-TECH Software Omniscient Code Generator (Lite mode) build 49521"
  5133  0000C8  5020               	movf	((c:_heater_count)),c,w
  5134  0000CA  0AF4               	xorlw	244
  5135  0000CC  1021               	iorwf ((c:_heater_count+1)),c,w
  5136                           opt subtitle "HI-TECH Software Omniscient Code Generator (Lite mode) build 49521"
  5137  0000CE  A4D8               	btfss	status,2
  5138  0000D0  D001               	goto	i2u7_41
  5139  0000D2  D001               	goto	i2u7_40
  5140  0000D4                     i2u7_41:
  5141  0000D4  D02F               	goto	i2l1013
  5142  0000D6                     i2u7_40:
  5143                           opt subtitle "HI-TECH Software Omniscient Code Generator (Lite mode) build 49521"
  5144                           
  5145  0000D6                     i2l995:
  5146                           opt subtitle "HI-TECH Software Omniscient Code Generator (Lite mode) build 49521"
  5147                           
  5148  0000D6  4A26               	infsnz	((c:_sec_heater)),c
  5149  0000D8  2A27               	incf	((c:_sec_heater+1)),c
  5150                           opt subtitle "HI-TECH Software Omniscient Code Generator (Lite mode) build 49521"
  5151                           
  5152  0000DA                     i2l997:
  5153                           opt subtitle "HI-TECH Software Omniscient Code Generator (Lite mode) build 49521"
  5154  0000DA  0E00               	movlw	high(0)
  5155  0000DC  6E21               	movwf	((c:_heater_count+1)),c
  5156  0000DE  0E00               	movlw	low(0)
  5157  0000E0  6E20               	movwf	((c:_heater_count)),c
  5158                           opt subtitle "HI-TECH Software Omniscient Code Generator (Lite mode) build 49521"
  5159                           
  5160  0000E2                     i2l999:
  5161                           opt subtitle "HI-TECH Software Omniscient Code Generator (Lite mode) build 49521"
  5162  0000E2  5026               	movf	((c:_sec_heater)),c,w
  5163  0000E4  0A3C               	xorlw	60
  5164  0000E6  1027               	iorwf ((c:_sec_heater+1)),c,w
  5165                           opt subtitle "HI-TECH Software Omniscient Code Generator (Lite mode) build 49521"
  5166  0000E8  A4D8               	btfss	status,2
  5167  0000EA  D001               	goto	i2u8_41
  5168  0000EC  D001               	goto	i2u8_40
  5169  0000EE                     i2u8_41:
  5170  0000EE  D022               	goto	i2l1013
  5171  0000F0                     i2u8_40:
  5172                           opt subtitle "HI-TECH Software Omniscient Code Generator (Lite mode) build 49521"
  5173                           
  5174  0000F0                     i2l1001:
  5175                           opt subtitle "HI-TECH Software Omniscient Code Generator (Lite mode) build 49521"
  5176                           
  5177  0000F0  4A24               	infsnz	((c:_min_heater)),c
  5178  0000F2  2A25               	incf	((c:_min_heater+1)),c
  5179                           opt subtitle "HI-TECH Software Omniscient Code Generator (Lite mode) build 49521"
  5180                           
  5181  0000F4                     i2l1003:
  5182                           opt subtitle "HI-TECH Software Omniscient Code Generator (Lite mode) build 49521"
  5183  0000F4  0E00               	movlw	high(0)
  5184  0000F6  6E27               	movwf	((c:_sec_heater+1)),c
  5185  0000F8  0E00               	movlw	low(0)
  5186  0000FA  6E26               	movwf	((c:_sec_heater)),c
  5187                           opt subtitle "HI-TECH Software Omniscient Code Generator (Lite mode) build 49521"
  5188                           
  5189  0000FC                     i2l1005:
  5190                           opt subtitle "HI-TECH Software Omniscient Code Generator (Lite mode) build 49521"
  5191  0000FC  5024               	movf	((c:_min_heater)),c,w
  5192  0000FE  0A0F               	xorlw	15
  5193  000100  1025               	iorwf ((c:_min_heater+1)),c,w
  5194                           opt subtitle "HI-TECH Software Omniscient Code Generator (Lite mode) build 49521"
  5195  000102  A4D8               	btfss	status,2
  5196  000104  D001               	goto	i2u9_41
  5197  000106  D001               	goto	i2u9_40
  5198  000108                     i2u9_41:
  5199  000108  D015               	goto	i2l1013
  5200  00010A                     i2u9_40:
  5201                           opt subtitle "HI-TECH Software Omniscient Code Generator (Lite mode) build 49521"
  5202                           
  5203  00010A                     i2l1007:
  5204                           opt subtitle "HI-TECH Software Omniscient Code Generator (Lite mode) build 49521"
  5205                           
  5206  00010A  968A               	bcf	c:(31827/8),(31827)&7	;volatile
  5207                           opt subtitle "HI-TECH Software Omniscient Code Generator (Lite mode) build 49521"
  5208                           
  5209  00010C                     i2l1009:
  5210                           opt subtitle "HI-TECH Software Omniscient Code Generator (Lite mode) build 49521"
  5211  00010C  0E00               	movlw	high(0)
  5212  00010E  6E25               	movwf	((c:_min_heater+1)),c
  5213  000110  0E00               	movlw	low(0)
  5214  000112  6E24               	movwf	((c:_min_heater)),c
  5215                           opt subtitle "HI-TECH Software Omniscient Code Generator (Lite mode) build 49521"
  5216                           
  5217  000114  0E00               	movlw	high(0)
  5218  000116  6E27               	movwf	((c:_sec_heater+1)),c
  5219  000118  0E00               	movlw	low(0)
  5220  00011A  6E26               	movwf	((c:_sec_heater)),c
  5221                           opt subtitle "HI-TECH Software Omniscient Code Generator (Lite mode) build 49521"
  5222                           
  5223  00011C                     i2l1011:
  5224                           opt subtitle "HI-TECH Software Omniscient Code Generator (Lite mode) build 49521"
  5225  00011C  9ED5               	bcf	c:(32431/8),(32431)&7	;volatile
  5226                           opt subtitle "HI-TECH Software Omniscient Code Generator (Lite mode) build 49521"
  5227                           
  5228  00011E  0E00               	movlw	low(0)
  5229  000120  6ED7               	movwf	((c:4055)),c	;volatile
  5230                           opt subtitle "HI-TECH Software Omniscient Code Generator (Lite mode) build 49521"
  5231                           
  5232  000122  0E00               	movlw	low(0)
  5233  000124  6ED6               	movwf	((c:4054)),c	;volatile
  5234                           opt subtitle "HI-TECH Software Omniscient Code Generator (Lite mode) build 49521"
  5235                           
  5236  000126  0E00               	movlw	high(04h)
  5237  000128  6E29               	movwf	((c:_state+1)),c
  5238  00012A  0E04               	movlw	low(04h)
  5239  00012C  6E28               	movwf	((c:_state)),c
  5240  00012E  D002               	goto	i2l1013
  5241                           opt subtitle "HI-TECH Software Omniscient Code Generator (Lite mode) build 49521"
  5242                           
  5243  000130                     i2l161:
  5244  000130  D001               	goto	i2l1013
  5245                           opt subtitle "HI-TECH Software Omniscient Code Generator (Lite mode) build 49521"
  5246                           
  5247  000132                     i2l160:
  5248  000132  D000               	goto	i2l1013
  5249                           opt subtitle "HI-TECH Software Omniscient Code Generator (Lite mode) build 49521"
  5250                           
  5251  000134                     i2l159:
  5252                           opt subtitle "HI-TECH Software Omniscient Code Generator (Lite mode) build 49521"
  5253                           
  5254  000134                     i2l1013:
  5255                           opt subtitle "HI-TECH Software Omniscient Code Generator (Lite mode) build 49521"
  5256                           
  5257                           opt pagewidth 120
  5258                           
  5259  000134  94F2               	bcf	c:(32658/8),(32658)&7	;volatile
  5260  000136  D000               	goto	i2l1015
  5261                           opt subtitle "HI-TECH Software Omniscient Code Generator (Lite mode) build 49521"
  5262                           
  5263  000138                     i2l158:
  5264                           opt subtitle "HI-TECH Software Omniscient Code Generator (Lite mode) build 49521"
  5265                           
  5266  000138                     i2l1015:
  5267                           opt subtitle "HI-TECH Software Omniscient Code Generator (Lite mode) build 49521"
  5268                           
  5269  000138  AA9E               	btfss	c:(31989/8),(31989)&7	;volatile
  5270  00013A  D001               	goto	i2u10_41
  5271  00013C  D001               	goto	i2u10_40
  5272  00013E                     i2u10_41:
  5273  00013E  D046               	goto	i2l1043
  5274  000140                     i2u10_40:
  5275                           opt subtitle "HI-TECH Software Omniscient Code Generator (Lite mode) build 49521"
  5276                           
  5277  000140                     i2l1017:
  5278                           opt subtitle "HI-TECH Software Omniscient Code Generator (Lite mode) build 49521"
  5279                           
  5280  000140  CFAE F02A          	movff	(c:4014),(c:_data)	;volatile
  5281                           opt subtitle "HI-TECH Software Omniscient Code Generator (Lite mode) build 49521"
  5282                           
  5283  000144                     i2l1019:
  5284                           opt subtitle "HI-TECH Software Omniscient Code Generator (Lite mode) build 49521"
  5285  000144  502A               	movf	((c:_data)),c,w
  5286  000146  0A4C               	xorlw	76
  5287                           opt subtitle "HI-TECH Software Omniscient Code Generator (Lite mode) build 49521"
  5288  000148  B4D8               	btfsc	status,2
  5289  00014A  D001               	goto	i2u11_41
  5290  00014C  D001               	goto	i2u11_40
  5291  00014E                     i2u11_41:
  5292  00014E  D006               	goto	i2l165
  5293  000150                     i2u11_40:
  5294                           opt subtitle "HI-TECH Software Omniscient Code Generator (Lite mode) build 49521"
  5295  000150                     i2l1021:
  5296  000150  502A               	movf	((c:_data)),c,w
  5297  000152  0A6C               	xorlw	108
  5298                           opt subtitle "HI-TECH Software Omniscient Code Generator (Lite mode) build 49521"
  5299  000154  A4D8               	btfss	status,2
  5300  000156  D001               	goto	i2u12_41
  5301  000158  D001               	goto	i2u12_40
  5302  00015A                     i2u12_41:
  5303  00015A  D006               	goto	i2l1025
  5304  00015C                     i2u12_40:
  5305                           opt subtitle "HI-TECH Software Omniscient Code Generator (Lite mode) build 49521"
  5306  00015C                     i2l165:
  5307                           opt subtitle "HI-TECH Software Omniscient Code Generator (Lite mode) build 49521"
  5308                           
  5309                           opt pagewidth 120
  5310  00015C  8689               	bsf	c:(31819/8),(31819)&7	;volatile
  5311                           opt subtitle "HI-TECH Software Omniscient Code Generator (Lite mode) build 49521"
  5312                           
  5313  00015E                     i2l1023:
  5314                           opt subtitle "HI-TECH Software Omniscient Code Generator (Lite mode) build 49521"
  5315  00015E  0E00               	movlw	high(01h)
  5316  000160  6E29               	movwf	((c:_state+1)),c
  5317  000162  0E01               	movlw	low(01h)
  5318  000164  6E28               	movwf	((c:_state)),c
  5319                           opt subtitle "HI-TECH Software Omniscient Code Generator (Lite mode) build 49521"
  5320                           
  5321  000166  D032               	goto	i2l1043
  5322                           opt subtitle "HI-TECH Software Omniscient Code Generator (Lite mode) build 49521"
  5323                           
  5324  000168                     i2l163:
  5325                           opt subtitle "HI-TECH Software Omniscient Code Generator (Lite mode) build 49521"
  5326  000168                     i2l1025:
  5327                           opt subtitle "HI-TECH Software Omniscient Code Generator (Lite mode) build 49521"
  5328  000168  502A               	movf	((c:_data)),c,w
  5329  00016A  0A4F               	xorlw	79
  5330                           opt subtitle "HI-TECH Software Omniscient Code Generator (Lite mode) build 49521"
  5331  00016C  B4D8               	btfsc	status,2
  5332  00016E  D001               	goto	i2u13_41
  5333  000170  D001               	goto	i2u13_40
  5334  000172                     i2u13_41:
  5335  000172  D006               	goto	i2l169
  5336  000174                     i2u13_40:
  5337                           opt subtitle "HI-TECH Software Omniscient Code Generator (Lite mode) build 49521"
  5338  000174                     i2l1027:
  5339  000174  502A               	movf	((c:_data)),c,w
  5340  000176  0A6F               	xorlw	111
  5341                           opt subtitle "HI-TECH Software Omniscient Code Generator (Lite mode) build 49521"
  5342  000178  A4D8               	btfss	status,2
  5343  00017A  D001               	goto	i2u14_41
  5344  00017C  D001               	goto	i2u14_40
  5345  00017E                     i2u14_41:
  5346  00017E  D006               	goto	i2l1031
  5347  000180                     i2u14_40:
  5348                           opt subtitle "HI-TECH Software Omniscient Code Generator (Lite mode) build 49521"
  5349  000180                     i2l169:
  5350                           opt subtitle "HI-TECH Software Omniscient Code Generator (Lite mode) build 49521"
  5351                           
  5352                           opt pagewidth 120
  5353  000180  9689               	bcf	c:(31819/8),(31819)&7	;volatile
  5354                           opt subtitle "HI-TECH Software Omniscient Code Generator (Lite mode) build 49521"
  5355                           
  5356  000182                     i2l1029:
  5357                           opt subtitle "HI-TECH Software Omniscient Code Generator (Lite mode) build 49521"
  5358  000182  0E00               	movlw	high(02h)
  5359  000184  6E29               	movwf	((c:_state+1)),c
  5360  000186  0E02               	movlw	low(02h)
  5361  000188  6E28               	movwf	((c:_state)),c
  5362                           opt subtitle "HI-TECH Software Omniscient Code Generator (Lite mode) build 49521"
  5363                           
  5364  00018A  D020               	goto	i2l1043
  5365                           opt subtitle "HI-TECH Software Omniscient Code Generator (Lite mode) build 49521"
  5366                           
  5367  00018C                     i2l167:
  5368                           opt subtitle "HI-TECH Software Omniscient Code Generator (Lite mode) build 49521"
  5369  00018C                     i2l1031:
  5370                           opt subtitle "HI-TECH Software Omniscient Code Generator (Lite mode) build 49521"
  5371  00018C  502A               	movf	((c:_data)),c,w
  5372  00018E  0A48               	xorlw	72
  5373                           opt subtitle "HI-TECH Software Omniscient Code Generator (Lite mode) build 49521"
  5374  000190  B4D8               	btfsc	status,2
  5375  000192  D001               	goto	i2u15_41
  5376  000194  D001               	goto	i2u15_40
  5377  000196                     i2u15_41:
  5378  000196  D007               	goto	i2l1035
  5379  000198                     i2u15_40:
  5380                           opt subtitle "HI-TECH Software Omniscient Code Generator (Lite mode) build 49521"
  5381  000198                     i2l1033:
  5382  000198  502A               	movf	((c:_data)),c,w
  5383  00019A  0A68               	xorlw	104
  5384                           opt subtitle "HI-TECH Software Omniscient Code Generator (Lite mode) build 49521"
  5385  00019C  A4D8               	btfss	status,2
  5386  00019E  D001               	goto	i2u16_41
  5387  0001A0  D001               	goto	i2u16_40
  5388  0001A2                     i2u16_41:
  5389  0001A2  D00C               	goto	i2l1041
  5390  0001A4                     i2u16_40:
  5391  0001A4  D000               	goto	i2l1035
  5392                           opt subtitle "HI-TECH Software Omniscient Code Generator (Lite mode) build 49521"
  5393  0001A6                     i2l173:
  5394                           opt subtitle "HI-TECH Software Omniscient Code Generator (Lite mode) build 49521"
  5395                           
  5396  0001A6                     i2l1035:
  5397                           opt subtitle "HI-TECH Software Omniscient Code Generator (Lite mode) build 49521"
  5398                           
  5399  0001A6  0E00               	movlw	low(0)
  5400  0001A8  6ED7               	movwf	((c:4055)),c	;volatile
  5401                           opt subtitle "HI-TECH Software Omniscient Code Generator (Lite mode) build 49521"
  5402                           
  5403  0001AA  0E00               	movlw	low(0)
  5404  0001AC  6ED6               	movwf	((c:4054)),c	;volatile
  5405                           opt subtitle "HI-TECH Software Omniscient Code Generator (Lite mode) build 49521"
  5406                           
  5407  0001AE                     i2l1037:
  5408                           opt subtitle "HI-TECH Software Omniscient Code Generator (Lite mode) build 49521"
  5409  0001AE  868A               	bsf	c:(31827/8),(31827)&7	;volatile
  5410                           opt subtitle "HI-TECH Software Omniscient Code Generator (Lite mode) build 49521"
  5411                           
  5412  0001B0                     i2l1039:
  5413                           opt subtitle "HI-TECH Software Omniscient Code Generator (Lite mode) build 49521"
  5414  0001B0  8ED5               	bsf	c:(32431/8),(32431)&7	;volatile
  5415                           opt subtitle "HI-TECH Software Omniscient Code Generator (Lite mode) build 49521"
  5416                           
  5417  0001B2  0E00               	movlw	high(03h)
  5418  0001B4  6E29               	movwf	((c:_state+1)),c
  5419  0001B6  0E03               	movlw	low(03h)
  5420  0001B8  6E28               	movwf	((c:_state)),c
  5421                           opt subtitle "HI-TECH Software Omniscient Code Generator (Lite mode) build 49521"
  5422                           
  5423  0001BA  D008               	goto	i2l1043
  5424                           opt subtitle "HI-TECH Software Omniscient Code Generator (Lite mode) build 49521"
  5425                           
  5426  0001BC                     i2l171:
  5427                           opt subtitle "HI-TECH Software Omniscient Code Generator (Lite mode) build 49521"
  5428                           
  5429  0001BC                     i2l1041:
  5430                           opt subtitle "HI-TECH Software Omniscient Code Generator (Lite mode) build 49521"
  5431                           
  5432  0001BC  0E00               	movlw	high(0)
  5433  0001BE  6E29               	movwf	((c:_state+1)),c
  5434  0001C0  0E00               	movlw	low(0)
  5435  0001C2  6E28               	movwf	((c:_state)),c
  5436  0001C4  D003               	goto	i2l1043
  5437                           opt subtitle "HI-TECH Software Omniscient Code Generator (Lite mode) build 49521"
  5438                           
  5439  0001C6                     i2l174:
  5440  0001C6  D002               	goto	i2l1043
  5441                           opt subtitle "HI-TECH Software Omniscient Code Generator (Lite mode) build 49521"
  5442  0001C8                     i2l170:
  5443  0001C8  D001               	goto	i2l1043
  5444                           opt subtitle "HI-TECH Software Omniscient Code Generator (Lite mode) build 49521"
  5445  0001CA                     i2l166:
  5446  0001CA  D000               	goto	i2l1043
  5447                           opt subtitle "HI-TECH Software Omniscient Code Generator (Lite mode) build 49521"
  5448                           
  5449  0001CC                     i2l162:
  5450                           opt subtitle "HI-TECH Software Omniscient Code Generator (Lite mode) build 49521"
  5451                           
  5452  0001CC                     i2l1043:
  5453                           opt subtitle "HI-TECH Software Omniscient Code Generator (Lite mode) build 49521"
  5454                           
  5455                           opt pagewidth 120
  5456  0001CC  A2F2               	btfss	c:(32657/8),(32657)&7	;volatile
  5457  0001CE  D001               	goto	i2u17_41
  5458  0001D0  D001               	goto	i2u17_40
  5459  0001D2                     i2u17_41:
  5460  0001D2  D010               	goto	i2l176
  5461  0001D4                     i2u17_40:
  5462                           opt subtitle "HI-TECH Software Omniscient Code Generator (Lite mode) build 49521"
  5463                           
  5464  0001D4                     i2l1045:
  5465                           opt subtitle "HI-TECH Software Omniscient Code Generator (Lite mode) build 49521"
  5466                           
  5467  0001D4  8289               	bsf	c:(31817/8),(31817)&7	;volatile
  5468                           opt subtitle "HI-TECH Software Omniscient Code Generator (Lite mode) build 49521"
  5469                           
  5470  0001D6  9489               	bcf	c:(31818/8),(31818)&7	;volatile
  5471                           opt subtitle "HI-TECH Software Omniscient Code Generator (Lite mode) build 49521"
  5472                           
  5473  0001D8  9689               	bcf	c:(31819/8),(31819)&7	;volatile
  5474                           opt subtitle "HI-TECH Software Omniscient Code Generator (Lite mode) build 49521"
  5475                           
  5476  0001DA  968A               	bcf	c:(31827/8),(31827)&7	;volatile
  5477                           opt subtitle "HI-TECH Software Omniscient Code Generator (Lite mode) build 49521"
  5478                           
  5479  0001DC  9ED5               	bcf	c:(32431/8),(32431)&7	;volatile
  5480                           opt subtitle "HI-TECH Software Omniscient Code Generator (Lite mode) build 49521"
  5481                           
  5482  0001DE  94BA               	bcf	c:(32210/8),(32210)&7	;volatile
  5483                           opt subtitle "HI-TECH Software Omniscient Code Generator (Lite mode) build 49521"
  5484                           
  5485  0001E0                     i2l1047:
  5486                           opt subtitle "HI-TECH Software Omniscient Code Generator (Lite mode) build 49521"
  5487  0001E0  0E00               	movlw	high(05h)
  5488  0001E2  6E29               	movwf	((c:_state+1)),c
  5489  0001E4  0E05               	movlw	low(05h)
  5490  0001E6  6E28               	movwf	((c:_state)),c
  5491                           opt subtitle "HI-TECH Software Omniscient Code Generator (Lite mode) build 49521"
  5492                           
  5493  0001E8  0E00               	movlw	low(0)
  5494  0001EA  6ED7               	movwf	((c:4055)),c	;volatile
  5495                           opt subtitle "HI-TECH Software Omniscient Code Generator (Lite mode) build 49521"
  5496                           
  5497  0001EC  0E00               	movlw	low(0)
  5498  0001EE  6ED6               	movwf	((c:4054)),c	;volatile
  5499                           opt subtitle "HI-TECH Software Omniscient Code Generator (Lite mode) build 49521"
  5500                           
  5501  0001F0                     i2l1049:
  5502                           opt subtitle "HI-TECH Software Omniscient Code Generator (Lite mode) build 49521"
  5503  0001F0  92F2               	bcf	c:(32657/8),(32657)&7	;volatile
  5504  0001F2  D000               	goto	i2l176
  5505                           opt subtitle "HI-TECH Software Omniscient Code Generator (Lite mode) build 49521"
  5506                           
  5507  0001F4                     i2l175:
  5508                           opt subtitle "HI-TECH Software Omniscient Code Generator (Lite mode) build 49521"
  5509                           
  5510  0001F4                     i2l176:
  5511  0001F4  C00E  FFF5         	movff	??_allInterupts+13,tablat+0
  5512  0001F8  C00D  FFF8         	movff	??_allInterupts+12,tblptru+0
  5513  0001FC  C00C  FFF7         	movff	??_allInterupts+11,tblptrh+0
  5514  000200  C00B  FFF6         	movff	??_allInterupts+10,tblptrl+0
  5515  000204  C00A  FFF4         	movff	??_allInterupts+9,prodh+0
  5516  000208  C009  FFF3         	movff	??_allInterupts+8,prodl+0
  5517  00020C  C008  FFDA         	movff	??_allInterupts+7,fsr2h+0
  5518  000210  C007  FFD9         	movff	??_allInterupts+6,fsr2l+0
  5519  000214  C006  FFE2         	movff	??_allInterupts+5,fsr1h+0
  5520  000218  C005  FFE1         	movff	??_allInterupts+4,fsr1l+0
  5521  00021C  C004  FFEA         	movff	??_allInterupts+3,fsr0h+0
  5522  000220  C003  FFE9         	movff	??_allInterupts+2,fsr0l+0
  5523  000224  C002  FFFB         	movff	??_allInterupts+1,pclat+1
  5524  000228  C001  FFFA         	movff	??_allInterupts+0,pclat+0
  5525  00022C  0011               	retfie f
  5526                           opt subtitle "HI-TECH Software Omniscient Code Generator (Lite mode) build 49521"
  5527                           
  5528  00022E                     	__end_of_allInterupts:
  5529                           opt subtitle "HI-TECH Software Omniscient Code Generator (Lite mode) build 49521"
  5530                           
  5531  000621  00                 	db 0	; dummy byte at the end
  5532                           opt subtitle "HI-TECH Software Omniscient Code Generator (Lite mode) build 49521"
  5533                           
  5534                           opt pagewidth 120
  5535  0000                     __activetblptr	EQU	1
  5536                           opt subtitle "HI-TECH Software Omniscient Code Generator (Lite mode) build 49521"
  5537                           
  5538                           opt pagewidth 120
  5539                           
  5540                           	opt lm
  5541                           
  5542  0000                     __Lparam	EQU	__Lrparam
  5543  0000                     __Hparam	EQU	__Hrparam


Data Sizes:
    Strings     33
    Constant    0
    Data        6
    BSS         15
    Persistent  0
    Stack       0

Auto Spaces:
    Space          Size  Autos    Used
    COMRAM           95     27      48
    BANK0           160      0       0
    BANK1           256      0       0
    BANK2           256      0       0
    BANK3           256      0       0
    BANK4           256      0       0
    BANK5           256      0       0

Pointer List with Targets:

    ?___lwmod	unsigned int  size(2) Largest target is 0

    ?___lwdiv	unsigned int  size(2) Largest target is 0

    ?___awdiv	int  size(2) Largest target is 0

    send_msg@text	PTR const unsigned char  size(2) Largest target is 16
		 -> STR_5(CODE[9]), STR_4(CODE[8]), STR_3(CODE[9]), STR_2(CODE[8]), 
		 -> STR_1(CODE[16]), 


Critical Paths under _main in COMRAM

    _main->_send_msg
    _init_pwm->___awdiv
    _init_display->_write_4bit_data
    _set_address_line1->_write_command
    _send_msg->_write_data
    _set_address_line2->_write_command
    _write_data->___lwdiv
    _write_command->_write_4bit_data

Critical Paths under _allInterupts in COMRAM

    None.

Critical Paths under _main in BANK0

    None.

Critical Paths under _allInterupts in BANK0

    None.

Critical Paths under _main in BANK1

    None.

Critical Paths under _allInterupts in BANK1

    None.

Critical Paths under _main in BANK2

    None.

Critical Paths under _allInterupts in BANK2

    None.

Critical Paths under _main in BANK3

    None.

Critical Paths under _allInterupts in BANK3

    None.

Critical Paths under _main in BANK4

    None.

Critical Paths under _allInterupts in BANK4

    None.

Critical Paths under _main in BANK5

    None.

Critical Paths under _allInterupts in BANK5

    None.

Call Graph Tables:

 ---------------------------------------------------------------------------------
 (Depth) Function   	        Calls       Base Space   Used Autos Params    Refs
 ---------------------------------------------------------------------------------
 (0) _main                                                 2     2      0     915
                                             25 COMRAM     2     2      0
                        _init_timer0
                        _init_timer1
                       _init_display
                           _init_pwm
                           _init_com
                  _set_address_line1
                           _send_msg
                  _set_address_line2
                            ___lwdiv
                         _write_data
                            ___lwmod
 ---------------------------------------------------------------------------------
 (1) _init_com                                             0     0      0       0
 ---------------------------------------------------------------------------------
 (1) _init_timer0                                          0     0      0       0
 ---------------------------------------------------------------------------------
 (1) _init_timer1                                          0     0      0       0
 ---------------------------------------------------------------------------------
 (1) _init_pwm                                             0     0      0     195
                            ___awdiv
 ---------------------------------------------------------------------------------
 (1) _init_display                                         1     1      0      90
                                             17 COMRAM     1     1      0
                    _write_8bit_data
                    _write_4bit_data
 ---------------------------------------------------------------------------------
 (1) _set_address_line1                                    1     0      1     105
                                             19 COMRAM     1     0      1
                      _write_command
 ---------------------------------------------------------------------------------
 (1) _send_msg                                             2     0      2     120
                                             23 COMRAM     2     0      2
                         _write_data
 ---------------------------------------------------------------------------------
 (1) _set_address_line2                                    1     0      1     105
                                             19 COMRAM     1     0      1
                      _write_command
 ---------------------------------------------------------------------------------
 (1) _write_data                                           1     0      1      90
                                             22 COMRAM     1     0      1
                    _write_4bit_data
                            ___lwdiv (ARG)
                            ___lwmod (ARG)
 ---------------------------------------------------------------------------------
 (2) _write_8bit_data                                      1     0      1      15
                                             14 COMRAM     1     0      1
 ---------------------------------------------------------------------------------
 (2) _write_command                                        2     1      1      90
                                             17 COMRAM     2     1      1
                    _write_4bit_data
 ---------------------------------------------------------------------------------
 (2) _write_4bit_data                                      3     2      1      75
                                             14 COMRAM     3     2      1
 ---------------------------------------------------------------------------------
 (2) ___awdiv                                              9     5      4     195
                                             14 COMRAM     9     5      4
 ---------------------------------------------------------------------------------
 (1) ___lwdiv                                              8     4      4     105
                                             14 COMRAM     8     4      4
 ---------------------------------------------------------------------------------
 (1) ___lwmod                                              6     2      4     105
                                             14 COMRAM     6     2      4
 ---------------------------------------------------------------------------------
 Estimated maximum stack depth 2
 ---------------------------------------------------------------------------------
 (Depth) Function   	        Calls       Base Space   Used Autos Params    Refs
 ---------------------------------------------------------------------------------
 (4) _allInterupts                                        14    14      0       0
                                              0 COMRAM    14    14      0
 ---------------------------------------------------------------------------------
 Estimated maximum stack depth 4
 ---------------------------------------------------------------------------------

 Call Graph Graphs:

 _main (ROOT)
   _init_timer0
   _init_timer1
   _init_display
     _write_8bit_data
     _write_4bit_data
   _init_pwm
     ___awdiv
   _init_com
   _set_address_line1
     _write_command
       _write_4bit_data
   _send_msg
     _write_data
       _write_4bit_data
       ___lwdiv (ARG)
       ___lwmod (ARG)
   _set_address_line2
     _write_command
       _write_4bit_data
   ___lwdiv
   _write_data
     _write_4bit_data
     ___lwdiv (ARG)
     ___lwmod (ARG)
   ___lwmod

 _allInterupts (ROOT)

 Address spaces:
Name               Size   Autos  Total    Cost      Usage
BIGRAM             5FF      0       0      16        0.0%
EEDATA             100      0       0       0        0.0%
BITBANK5           100      0       0      14        0.0%
BANK5              100      0       0      15        0.0%
BITBANK4           100      0       0      12        0.0%
BANK4              100      0       0      13        0.0%
BITBANK3           100      0       0      10        0.0%
BANK3              100      0       0      11        0.0%
BITBANK2           100      0       0       7        0.0%
BANK2              100      0       0       8        0.0%
BITBANK1           100      0       0       5        0.0%
BANK1              100      0       0       6        0.0%
BITBANK0            A0      0       0       3        0.0%
BANK0               A0      0       0       4        0.0%
BITCOMRAM           5F      0       0       0        0.0%
COMRAM              5F     1B      30       1       50.5%
BITSFR_1             0      0       0      40        0.0%
SFR_1                0      0       0      40        0.0%
BITSFR               0      0       0      40        0.0%
SFR                  0      0       0      40        0.0%
STACK                0      0       3       2        0.0%
NULL                 0      0       0       0        0.0%
ABS                  0      0      30       9        0.0%
DATA                 0      0      33      17        0.0%
CODE                 0      0       0       0        0.0%


Microchip Technology PIC18 Macro Assembler V1.12 build 49521 
Symbol Table                                                                                   Thu Nov 22 16:09:59 2018

                            _i 0022                   ___awdiv@sign 0015                             _hr 002B  
                          l200 0824                            l201 085C                            l210 0A68  
                          l202 088E                            l211 0AA2                            l203 08DE  
                          l204 0BF6                            l212 0ADC                            l213 0B16  
                          l205 08E0                            l206 0C48                            l214 0B80  
                          l215 0BBA                            l207 09BA                            l216 0C4A  
                          l208 09F4                            l241 0EE6                            l217 0C4C  
                          l209 0A2E                            l250 1004                            l218 0C4C  
                          l235 0D0E                            l244 1038                            l260 0F24  
                          l253 1018                            l261 0F54                            l238 102A  
                          l262 0F54                            l182 0FBC                            l247 0FDA  
                          l185 0F9E                            l194 06B6                            l259 0F3C  
                          l179 0FF0                            l195 072A                            l188 0F7C  
                          l196 0720                            l197 0790                            l390 0DAA  
                          l382 0D32                            l198 0786                            l391 0DC0  
                          l383 0D48                            l199 07F2                            l392 0DCA  
                          l384 0DAC                            l385 0D70                            l730 0E36  
                          l386 0D66                            l723 0E2E                            l387 0D7A  
                          l740 0E92                            l724 0DF4                            l388 0D7C  
                          l733 0E8A                            l725 0DEA                            l389 0D9E  
                          l734 0E58                            l726 0DFE                            l735 0E4E  
                          l727 0E00                            l736 0E62                            l728 0E22  
                          l737 0E64                            l729 0E2E                            l738 0E7E  
                          l739 0E8A                            _GIE 007F97                            u200 06CE  
                          u201 06CC                            u210 0712                            u211 0710  
                          u300 0832                            u220 0732                            u301 0830  
                          u221 0730                            u310 083E                            u230 073A  
                          u311 083C                            u231 0738                            u400 0D3A  
                          u320 084A                            u240 077E                            u401 0D38  
                          u321 0848                            u241 077C                            u410 0D5C  
                          u330 086A                            u250 0798                            u411 0D5A  
                          u331 0868                            u251 0796                            u500 0E74  
                          u420 0D78                            u340 0876                            u260 07A0  
                          u180 06BE                            u501 0E72                            u421 0D76  
                          u341 0874                            u261 079E                            u181 06BC  
                          u430 0D92                            u350 0882                            u270 0800  
                          u190 06C6                            _PR2 000FBB                            u431 0D90  
                          u351 0880                            u271 07FE                            u191 06C4  
                          u440 0DB6                            u360 0896                            u280 080C  
                          u441 0DB4                            u361 0894                            u281 080A  
                          u450 0DE0                            u370 089E                            u290 0818  
                          u451 0DDE                            u371 089C                            u291 0816  
                          u460 0DFC                            u380 0F52                            u461 0DFA  
                          u381 0F50                            u517 06D4                            u470 0E16  
                          u390 0D20                            u471 0E14                            u391 0D1E  
                          u607 08A4                            u527 06E4                            u480 0E44  
                          u481 0E42                            u617 08B4                            u537 06F4  
                          u490 0E60                            u491 0E5E                            u707 1012  
                          u627 08C4                            u547 0740                            u717 1022  
                          u637 0C5E                            u557 0750                            u727 0FCE  
                          u647 0C7A                            u567 0760                            _PSA 007EAB  
                          u737 0EB2                            u657 0C92                            u577 07A6  
                          u747 0EC2                            u667 0CA6                            u587 07B6  
                          u757 0EDE                            u677 0CBA                            u597 07C6  
                          u687 0CEA                            u697 0FFE                            _min 002D  
                          _sec 002F                            wreg 000FE8                   __CFG_LVP$OFF 000000  
                         l1101 069A                           l1111 06C6                           l1103 06A6  
                         l1201 0A2E                           l1121 0720                           l1113 06CE  
                         l1105 06B2                           l1051 0FDC                           l1211 0AD2  
                         l1203 0A5E                           l1131 077E                           l1115 06FE  
                         l1123 072A                           l1107 06B6                           l1301 0E9C  
                         l1061 0FEC                           l1053 0FE2                           l1221 0B80  
                         l1213 0ADC                           l1205 0A68                           l1141 07D8  
                         l1125 0732                           l1133 0790                           l1117 0712  
                         l1109 06BE                           l1311 0EB8                           l1303 0EA2  
                         l1071 0F96                           l1063 0FEE                           l1055 0FE6  
                         l1223 0BB0                           l1215 0B0C                           l1207 0A98  
                         l1231 0BF6                           l1151 080C                           l1143 07E0  
                         l1135 0798                           l1127 073A                           l1119 071A  
                         l1401 0E1E                           l1321 0ED4                           l1313 0EBA  
                         l1305 0EA8                           l1241 0C68                           l1073 0F56  
                         l1065 0FA0                           l1057 0FE8                           l1225 0BBA  
                         l1217 0B16                           l1209 0AA2                           l1161 083E  
                         l1153 0818                           l1145 07E8                           l1137 07A0  
                         l1129 076A                           l1081 0622                           l1411 0E4E  
                         l1403 0E22                           l1323 0EDA                           l1315 0EC0  
                         l1307 0EAE                           l1331 0FC0                           l1251 0CA4  
                         l1243 0C74                           l1075 0F62                           l1067 0FB4  
                         l1059 0FEA                           l1227 0BEA                           l1219 0B76  
                         l1171 086A                           l1163 084A                           l1155 081A  
                         l1139 07D0                           l1147 07F2                           l1091 0666  
                         l1083 0656                           l1421 0E84                           l1413 0E58  
                         l1405 0E28                           l1341 0D10                           l1325 0EDC  
                         l1317 0EC8                           l1309 0EB0                           l1333 0FC8  
                         l1261 0CD8                           l1253 0CAC                           l1245 0C84  
                         l1237 0C50                           l1077 0F78                           l1069 0F7E  
                         l1229 0BF4                           l1181 0896                           l1173 0876  
                         l1165 084E                           l1149 0800                           l1157 0824  
                         l1093 066A                           l1085 065A                           l1415 0E64  
                         l1407 0E38                           l1351 0D3A                           l1343 0D18  
                         l1327 0EE4                           l1319 0ECE                           l1335 0FD8  
                         l1271 0FF2                           l1263 0CE4                           l1255 0CB8  
                         l1247 0C90                           l1239 0C58                           l1191 08E0  
                         l1183 089E                           l1175 0882                           l1167 0850  
                         l1159 0832                           l1095 0676                           l1087 065E  
                         l1417 0E74                           l1409 0E44                           l1361 0D66  
                         l1353 0D42                           l1345 0D20                           l1329 0FBE  
                         l1281 0F3C                           l1273 0FFC                           l1265 0CF4  
                         l1257 0CC0                           l1249 0C98                           l1193 09BA  
                         l1185 08CE                           l1177 0884                           l1169 085C  
                         l1097 0682                           l1089 0662                           l1419 0E7E  
                         l1371 0D9A                           l1363 0D70                           l1355 0D48  
                         l1347 0D28                           l1291 1036                           l1283 1006  
                         l1275 0F22                           l1267 0D00                           l1259 0CCC  
                         l1443 0C08                           l1195 09EA                           l1187 08D0  
                         l1179 088E                           l1099 068E                           l1381 0DC0  
                         l1373 0D9E                           l1365 0D7C                           l1357 0D50  
                         l1349 0D32                           l1293 101A                           l1285 1010  
                         l1277 0F24                           l1269 0D0C                           l1197 09F4  
                         l1189 08D4                           l1391 0DEA                           l1383 0DCA  
                         l1375 0DA4                           l1367 0D82                           l1359 0D5C  
                         l1295 1020                           l1287 102C                           l1279 0F36  
                         l1199 0A24                           l1393 0DF4                           l1385 0DCC  
                         l1369 0D92                           l1377 0DAC                           l1297 1028  
                         l1289 102E                           l1395 0E00                           l1387 0DD4  
                         l1379 0DB6                           l1299 0E94                           l1397 0E06  
                         l1389 0DE0                           l1399 0E16                           STR_1 0600  
                         STR_2 0619                           STR_3 0610                           STR_4 0619  
                         STR_5 0610                           _T0IE 007F95                           _T0IF 007F92  
                         _T0CS 007EAD                           _PEIE 007F96                           _RCIE 007CED  
                         _RCIF 007CF5                           _TMR2 000FBC                           _data 002A  
                         _main 0622                           fsr0h 000FEA                           fsr1h 000FE2  
                         fsr0l 000FE9                           fsr2h 000FDA                           fsr1l 000FE1  
                         fsr2l 000FD9                           pclat 000FFA                           prodh 000FF4  
                         prodl 000FF3                           start 022E                  __CFG_IESO$OFF 000000  
write_command@command_to_write 0012    write_8bit_data@data_to_send 000F              ??_write_4bit_data 0010  
                        ?_main 0001                __end_of___awdiv 0DCC                          _BRGH1 007D62  
                        _CREN1 007D5C                ___awdiv@divisor 0011                          _T2CON 000FBA  
                        _LATA1 007C49                          _LATA2 007C4A                          _LATB1 007C51  
                        _LATA3 007C4B                          _LATB2 007C52                          _LATB3 007C53  
                        _T0PS0 007EA8                          _T0PS1 007EA9                          _T0PS2 007EAA  
                        _INT0E 007F94                          _INT0F 007F91                __end_of___lwdiv 0E38  
              __end_of___lwmod 0E94                          i2l160 0132                          i2l161 0130  
                        i2l153 00BC                          i2l162 01CC                          i2l170 01C8  
                        i2l154 00B8                          i2l171 01BC                          i2l163 0168  
                        i2l155 00B6                          i2l156 00B4                          i2l173 01A6  
                        i2l165 015C                          i2l157 00B2                          i2l166 01CA  
                        i2l174 01C6                          i2l158 0138                          i2l175 01F4  
                        i2l167 018C                          i2l159 0134                          i2l176 01F4  
                        i2l169 0180                          i2l961 0040                          i2l971 0066  
                        i2l963 0048                ___awdiv@counter 0014                          i2l981 0092  
                        i2l973 0074                          i2l965 004C                          i2l991 00C4  
                        i2l983 009A                          i2l975 0078                          i2l967 005A  
                        i2l993 00C8                          i2l985 00A8                          i2l977 0080  
                        i2l969 005E                          i2l995 00D6                          i2l979 008E  
                        i2l987 00B8                          i2l997 00DA                          i2l989 00BC  
                        i2l999 00E2                          _SPEN1 007D5F                          _TMR0H 000FD7  
                        _TMR1H 000FCF                          _TMR0L 000FD6                          _TMR1L 000FCE  
                        _PORTA 000F80                          _PORTB 000F81                          _PORTC 000F82  
                        _TRISA 000F92                          _TRISB 000F93                          _TRISC 000F94  
                        _SYNC1 007D64                   ?_init_timer0 0001                   ?_init_timer1 0001  
            ??_write_8bit_data 0010                          _count 001C             __CFG_MCLRE$EXTMCLR 000000  
                        _state 0028                          tablat 000FF5                          status 000FD8  
   __size_of_set_address_line1 0014     __size_of_set_address_line2 0014                __initialization 0EE8  
                 __end_of_main 0C50                         ??_main 001A                  __activetblptr 000001  
      write_data@data_to_write 0017                         _CCPR1L 000FBE                         _T08BIT 007EAE  
             ___awdiv@dividend 000F                         _ANSELA 000F38                         _ANSELB 000F39  
                       _ANSELC 000F3A                         _T1RD16 007E69                         i2l1001 00F0  
                       i2l1011 011C                         i2l1003 00F4                         i2l1021 0150  
                       i2l1005 00FC                         i2l1013 0134                         i2l1031 018C  
                       i2l1023 015E                         i2l1007 010A                         i2l1015 0138  
                       i2l1041 01BC                         i2l1033 0198                         i2l1025 0168  
                       i2l1017 0140                         i2l1009 010C                         i2l1035 01A6  
                       i2l1027 0174                         i2l1019 0144                         i2l1043 01CC  
                       i2l1045 01D4                         i2l1037 01AE                         i2l1029 0182  
                       i2l1047 01E0                         i2l1039 01B0                         i2l1049 01F0  
                       _T1SYNC 007E6A                 __CFG_WDTEN$OFF 000000                         _RCREG1 000FAE  
                ?_init_display 0001                         _OSCCON 000FD3                         _SPBRG1 000FAF  
                       _TMR0IF 007F92                         _TMR1IE 007CE8                         _TMR1IF 007CF0  
                       _TMR0ON 007EAF                         _TMR1ON 007E68                         _TMR2ON 007DD2  
                       i2u1_40 0048                         i2u1_41 0046                         i2u2_40 005A  
                       i2u2_41 0058                         i2u3_40 0074                         i2u3_41 0072  
                       i2u4_40 008E                         i2u4_41 008C                         i2u5_40 00A8  
                       i2u5_41 00A6                         i2u6_40 00C4                         i2u6_41 00C2  
                       i2u7_40 00D6                         i2u7_41 00D4                         i2u8_40 00F0  
                       i2u8_41 00EE                         i2u9_40 010A                         i2u9_41 0108  
        __size_of_allInterupts 0226                      ??___awdiv 0013                      ??___lwdiv 0013  
                    ??___lwmod 0013               __end_of_init_com 0FF2               __end_of_init_pwm 0F7E  
                       clear_0 0EEE               ___awdiv@quotient 0016               __end_of_send_msg 0F56  
                 __pdataCOMRAM 002B                   __mediumconst 0000                         tblptrh 000FF7  
                       tblptrl 000FF6                         tblptru 000FF8                   _allInterupts 0008  
               ??_init_display 0012                     __accesstop 0060        __end_of__initialization 0F14  
               __pcstackCOMRAM 0001         __size_of_write_command 001E           __size_of_init_timer0 001E  
         __size_of_init_timer1 0022                _write_4bit_data 0E94                        _CCP1CON 000FBD  
              _write_8bit_data 101A                        _T1CKPS0 007E6C                        _T1CKPS1 007E6D  
                      _INTEDG0 007F8E                        i2u10_40 0140                        i2u10_41 013E  
                      i2u11_40 0150                        i2u11_41 014E                        i2u12_40 015C  
                      i2u12_41 015A                        i2u13_40 0174                        i2u13_41 0172  
                      i2u14_40 0180                        i2u14_41 017E                        i2u15_40 0198  
                      i2u15_41 0196                        i2u16_40 01A4                        i2u16_41 01A2  
                      i2u17_40 01D4                        i2u17_41 01D2                        _TMR1CS0 007E6E  
                      _TMR1CS1 007E6F                      ?_init_com 0001                      ?_init_pwm 0001  
                _write_command 0FBE                        __Hparam 0000                      ?_send_msg 0018  
                      __Lparam 0000    write_4bit_data@data_to_send 000F                        ___awdiv 0D10  
                      ___lwdiv 0DCC                        ___lwmod 0E38                   __psmallconst 0600  
         __end_of_init_display 0D10                        __pcinit 0EE8                   _heater_count 0020  
                      __ramtop 0600                     _min_heater 0024                        __ptext0 0622  
                      __ptext1 0FDC                        __ptext2 0FA0                        __ptext3 0F7E  
                      __ptext4 0F56                        __ptext5 0C50                        __ptext6 0FF2  
                      __ptext7 0F22                        __ptext8 1006                        __ptext9 102C  
                   _sec_heater 0026           end_of_initialization 0F14        __end_of_write_4bit_data 0EE8  
               ?_write_command 0012                     ??_init_com 000F                     ??_init_pwm 0018  
                   ??_send_msg 001A        __end_of_write_8bit_data 102C                        postdec1 000FE5  
                      postinc0 000FEE                      _PORTCbits 000F82                   _display_flag 001E  
                   _write_data 102C                  __pidataCOMRAM 103A            start_initialization 0EE8  
              ??_write_command 0013               ?_write_4bit_data 000F               ?_write_8bit_data 000F  
        __size_of_init_display 00C0                  ??_init_timer0 000F                  ??_init_timer1 000F  
                  __pbssCOMRAM 001C            __end_of__stringdata 0621                   _init_display 0C50  
            __size_of_init_com 0016              __size_of_init_pwm 0028               ___lwdiv@dividend 000F  
                    __pintcode 0008              __size_of_send_msg 0034                       ?___awdiv 000F  
                     ?___lwdiv 000F                       ?___lwmod 000F                    ?_write_data 0017  
                  __smallconst 0600               ___lwdiv@quotient 0014            __end_of_init_timer0 0FBE  
          __end_of_init_timer1 0FA0                       _T1SOSCEN 007E6B                    __stringdata 0600  
                ?_allInterupts 0001                   send_msg@text 0018                      copy_data0 0F08  
          __size_of_write_data 000E                       __Hrparam 0000                       __Lrparam 0000  
                 __Lsmallconst 0600               __size_of___awdiv 00BC               __size_of___lwdiv 006C  
             __size_of___lwmod 005C                    _init_timer0 0FA0                    _init_timer1 0F7E  
               ??_allInterupts 0001                ___lwdiv@divisor 0011                ___lwdiv@counter 0016  
                     __ptext10 101A                       __ptext11 0FBE                       __ptext12 0E94  
                     __ptext13 0D10                       __ptext14 0DCC                       __ptext15 0E38  
          write_4bit_data@temp 0011                       _init_com 0FDC                  __size_of_main 062E  
                     _init_pwm 0F56                       _send_msg 0F22      set_address_line1@position 0014  
                     intlevel2 0000      set_address_line2@position 0014               ___lwmod@dividend 000F  
        __end_of_write_command 0FDC              _set_address_line1 0FF2              _set_address_line2 1006  
     __size_of_write_4bit_data 0054             ?_set_address_line1 0014             ?_set_address_line2 0014  
                 ??_write_data 0018            ??_set_address_line1 0015            ??_set_address_line2 0015  
     __size_of_write_8bit_data 0012                ___lwmod@divisor 0011                ___lwmod@counter 0014  
    __end_of_set_address_line1 1006      __end_of_set_address_line2 101A              __CFG_FOSC$INTIO67 000000  
           __end_of_write_data 103A           __end_of_allInterupts 022E  
